ccollections
Counter
p0
((dp1
S'biennials'
p2
I1
sS'secondly'
p3
I1
sS'writings'
p4
I1
sS'similarity'
p5
I1
sS'deferment'
p6
I1
sS'dissolution'
p7
I3
sS'dynamic'
p8
I10
sS'greenbergian'
p9
I1
sS'four'
p10
I2
sS'unidireccional'
p11
I1
sS'splashes'
p12
I1
sS'consists'
p13
I10
sS'trawling'
p14
I1
sS'battleground'
p15
I1
sS'dynamis'
p16
I1
sS'aggression'
p17
I1
sS'looking'
p18
I2
sS'return-to-itself'
p19
I1
sS'electricity'
p20
I1
sS'pre-eminence'
p21
I1
sS'quadruple'
p22
I1
sS'mediation'
p23
I10
sS'originality'
p24
I3
sS'alphabetic'
p25
I1
sS'aux'
p26
I1
sS'affirded'
p27
I1
sS'sinking'
p28
I1
sS'differencial'
p29
I1
sS'collaborate'
p30
I1
sS'navigating'
p31
I3
sS'thetics'
p32
I1
sS'void'
p33
I2
sS'misunderstanding'
p34
I1
sS'appropriation'
p35
I2
sS'govern'
p36
I1
sS'affect'
p37
I7
sS'fractal'
p38
I1
sS'picaresque'
p39
I1
sS'differentiated'
p40
I1
sS'objectivity'
p41
I1
sS'internally'
p42
I1
sS'clothed'
p43
I1
sS'solution'
p44
I4
sS'herbert'
p45
I1
sS'unrelated'
p46
I1
sS'intensification'
p47
I1
sS'succession'
p48
I2
sS'enhance'
p49
I1
sS're-posit'
p50
I1
sS'bill'
p51
I1
sS'ente'
p52
I1
sS'metonymic'
p53
I1
sS'hi-fi'
p54
I1
sS'miller'
p55
I1
sS'bacon'
p56
I1
sS'pulse'
p57
I1
sS'empirical'
p58
I4
sS'second'
p59
I15
sS'workless'
p60
I2
sS'subordinate'
p61
I1
sS'quite'
p62
I7
sS'even'
p63
I37
sS'deferred'
p64
I2
sS'integrity'
p65
I3
sS'ned'
p66
I1
sS'contributed'
p67
I2
sS'fingers'
p68
I1
sS'malleable'
p69
I1
sS'liberated'
p70
I2
sS'sexuality'
p71
I1
sS'new'
p72
I131
sS'propre'
p73
I1
sS'increasing'
p74
I1
sS'ever'
p75
I8
sS'harbors'
p76
I1
sS'rousseauistic'
p77
I1
sS'specialist'
p78
I2
sS'deemed'
p79
I1
sS'behavior'
p80
I2
sS'whose'
p81
I18
sS'experimentalism'
p82
I1
sS'never'
p83
I28
sS'interdependent'
p84
I2
sS'here'
p85
I21
sS'atoms'
p86
I1
sS'anthropology'
p87
I4
sS'met'
p88
I1
sS'self-propagating'
p89
I1
sS'specialism'
p90
I1
sS'evolutionist'
p91
I3
sS'compositor'
p92
I2
sS'reshuffle'
p93
I1
sS'confronts'
p94
I1
sS'interpret'
p95
I4
sS'luther'
p96
I1
sS'substance'
p97
I8
sS'tapes'
p98
I1
sS'rests'
p99
I1
sS'elaborate'
p100
I1
sS'deferring'
p101
I2
sS'recordings'
p102
I1
sS'credit'
p103
I1
sS'permit'
p104
I4
sS'symmetrical'
p105
I3
sS'ethnographer'
p106
I1
sS'astute'
p107
I1
sS'criticism'
p108
I2
sS'projection'
p109
I7
sS'classification'
p110
I4
sS'elaborated'
p111
I2
sS'replace'
p112
I4
sS'brought'
p113
I5
sS'specifics'
p114
I1
sS'resonant'
p115
I5
sS'pre-existence'
p116
I1
sS'p45'
p117
I1
sS'ethonographic'
p118
I1
sS'presents'
p119
I6
sS'queneau'
p120
I1
sS'dna'
p121
I3
sS'spoke'
p122
I1
sS'mortality'
p123
I1
sS'overshadow'
p124
I1
sS'asigning'
p125
I1
sS'enriching'
p126
I1
sS'symphony'
p127
I1
sS'music'
p128
I80
sS'therefore'
p129
I19
sS'methexis'
p130
I1
sS'survive'
p131
I1
sS'type'
p132
I1
sS'until'
p133
I4
sS'suffocated'
p134
I1
sS'menaces'
p135
I1
sS'posting'
p136
I1
sS'advance'
p137
I7
sS'brings'
p138
I3
sS'expose'
p139
I6
sS'dogma'
p140
I1
sS'shelters'
p141
I2
sS'eternally'
p142
I1
sS'hold'
p143
I3
sS'circumstances'
p144
I2
sS'intake'
p145
I2
sS'locked'
p146
I1
sS'rights'
p147
I3
sS'pursue'
p148
I2
sS'self-styled'
p149
I1
sS'setup'
p150
I1
sS'accomplishment'
p151
I3
sS'institutionalized'
p152
I1
sS'spec'
p153
I1
sS'bernard'
p154
I2
sS'obstacle'
p155
I1
sS'concepts'
p156
I12
sS'akin'
p157
I3
sS'example'
p158
I19
sS'defer'
p159
I1
sS'impose'
p160
I1
sS'couter'
p161
I4
sS'coutes'
p162
I1
sS'unjust'
p163
I1
sS'organized'
p164
I7
sS'contradic'
p165
I1
sS'locative'
p166
I1
sS'want'
p167
I7
sS'organizer'
p168
I1
sS'organizes'
p169
I2
sS'advancing'
p170
I2
sS'absolute'
p171
I18
sS'autonomy'
p172
I9
sS'worldview'
p173
I1
sS'syntactic'
p174
I1
sS'anguish'
p175
I1
sS'liberaci'
p176
I1
sS'institiution'
p177
I1
sS'suond'
p178
I1
sS'feature'
p179
I4
sS'adventurism'
p180
I1
sS'machine'
p181
I26
sS'how'
p182
I39
sS'flesh-and-blood'
p183
I1
sS'retooled'
p184
I1
sS'significance'
p185
I3
sS'endend'
p186
I1
sS'classify'
p187
I2
sS'abstraction'
p188
I8
sS'beauty'
p189
I3
sS'poetries'
p190
I1
sS'constante'
p191
I2
sS'typed'
p192
I1
sS'diagram'
p193
I1
sS'vocalization'
p194
I1
sS'wrong'
p195
I1
sS'aesthetcis'
p196
I1
sS'president'
p197
I1
sS'types'
p198
I6
sS'inactivity'
p199
I1
sS'attempt'
p200
I6
sS'effective'
p201
I1
sS'wins'
p202
I1
sS'descends'
p203
I1
sS'fictional'
p204
I1
sS'capitalism'
p205
I6
sS'maintain'
p206
I2
sS'interdititated'
p207
I1
sS'capitalist'
p208
I3
sS'keeps'
p209
I2
sS'democratic'
p210
I1
sS'operations'
p211
I12
sS'determinate'
p212
I3
sS'unfolds'
p213
I1
sS'feedback'
p214
I4
sS'enter'
p215
I4
sS'visuality'
p216
I2
sS'synaesthetic'
p217
I1
sS'violently'
p218
I1
sS'appropriating'
p219
I1
sS'owens'
p220
I1
sS'activating'
p221
I2
sS'dreamer'
p222
I1
sS'personae'
p223
I1
sS'rousseauism'
p224
I1
sS'deathly'
p225
I1
sS'auditory'
p226
I2
sS'personal'
p227
I2
sS'better'
p228
I6
sS'harmonics'
p229
I1
sS'personas'
p230
I1
sS'hidden'
p231
I4
sS'easier'
p232
I1
sS'emphasize'
p233
I1
sS'viola'
p234
I1
sS'combination'
p235
I3
sS'weakness'
p236
I1
sS'elementary'
p237
I4
sS'renunciation'
p238
I1
sS'effects'
p239
I9
sS'interrupt'
p240
I1
sS'multidimensional'
p241
I2
sS'nested'
p242
I1
sS'structural'
p243
I6
sS'represents'
p244
I5
sS'rhetoric'
p245
I3
sS'delimiting'
p246
I1
sS'hyper-reproducibility'
p247
I1
sS'curator'
p248
I2
sS'metaphoric'
p249
I3
sS'disconnection'
p250
I1
sS'natural-born'
p251
I1
sS'acoustic'
p252
I6
sS'went'
p253
I2
sS'messianic'
p254
I1
sS'bond'
p255
I3
sS'interruption'
p256
I4
sS'preceded'
p257
I1
sS'archetypes'
p258
I1
sS'resul'
p259
I1
sS'series'
p260
I5
sS'supressed'
p261
I1
sS'mystification'
p262
I1
sS'displacement'
p263
I2
sS'generative'
p264
I3
sS'sonifications'
p265
I2
sS'arrives'
p266
I2
sS'awry'
p267
I1
sS'laboratory'
p268
I2
sS'publically'
p269
I1
sS'collector'
p270
I1
sS'grammarians'
p271
I1
sS'contend'
p272
I1
sS'networked'
p273
I7
sS'diction'
p274
I2
sS'restricted'
p275
I2
sS'urbana'
p276
I1
sS'crucial'
p277
I7
sS'ry'
p278
I1
sS'moevemnts'
p279
I1
sS'content'
p280
I18
sS'combinatorial'
p281
I1
sS'ra'
p282
I4
sS'colelcted'
p283
I1
sS'reader'
p284
I8
sS'surprise'
p285
I3
sS'size'
p286
I1
sS'instigate'
p287
I1
sS'foundation'
p288
I3
sS'inhabitants'
p289
I1
sS'rehearsed'
p290
I1
sS'linear'
p291
I7
sS'assured'
p292
I1
sS'strate'
p293
I1
sS'telescoped'
p294
I1
sS'rative'
p295
I2
sS'threatened'
p296
I1
sS'fugitive'
p297
I1
sS'sensory'
p298
I2
sS'assures'
p299
I1
sS'attributions'
p300
I2
sS'faculties'
p301
I1
sS'sensors'
p302
I1
sS'lineal'
p303
I1
sS'monologue'
p304
I2
sS'nietzsche'
p305
I3
sS'exposing'
p306
I2
sS'starts'
p307
I2
sS'messages'
p308
I1
sS'moment'
p309
I11
sS'ist'
p310
I1
sS'musicians'
p311
I1
sS'isn'
p312
I1
sS'signature'
p313
I1
sS'loudness'
p314
I1
sS'loud'
p315
I1
sS'crossings'
p316
I1
sS'histerya'
p317
I1
sS'mathematization'
p318
I1
sS'participates'
p319
I2
sS'nouns'
p320
I1
sS'economists'
p321
I1
sS'interpretan'
p322
I1
sS'subtlety'
p323
I1
sS'reciprocally'
p324
I2
sS'deterritorialization'
p325
I2
sS'featured'
p326
I2
sS'stylistics'
p327
I1
sS'force'
p328
I18
sS'throught'
p329
I1
sS'stochastics'
p330
I1
sS'bottom-up'
p331
I2
sS'service'
p332
I1
sS'similarly'
p333
I3
sS'engagement'
p334
I3
sS'historian'
p335
I8
sS'identi'
p336
I3
sS'needed'
p337
I2
sS'master'
p338
I2
sS'witnessing'
p339
I2
sS'worlds'
p340
I1
sS'xix'
p341
I1
sS'architect'
p342
I1
sS'postulate'
p343
I1
sS'ranging'
p344
I1
sS'listen'
p345
I5
sS'modenr'
p346
I1
sS'growth'
p347
I2
sS'collapse'
p348
I5
sS'consiousness'
p349
I1
sS'driven'
p350
I1
sS'digs'
p351
I1
sS'multivocal'
p352
I2
sS'digm'
p353
I1
sS'somewhat'
p354
I1
sS'symptom'
p355
I1
sS'begins'
p356
I3
sS'distance'
p357
I4
sS'anxiety'
p358
I4
sS'dissapears'
p359
I1
sS'princeton'
p360
I1
sS'older'
p361
I5
sS'tree'
p362
I1
sS'likely'
p363
I3
sS'project'
p364
I13
sS'matter'
p365
I13
sS'idle'
p366
I1
sS'speaking'
p367
I9
sS'tion'
p368
I2
sS'feeling'
p369
I4
sS'aural'
p370
I5
sS'acquisition'
p371
I1
sS'sees'
p372
I5
sS'esta'
p373
I1
sS'minc'
p374
I1
sS'mind'
p375
I6
sS'spectrum'
p376
I1
sS'ergonomics'
p377
I1
sS'emphasizing'
p378
I1
sS'arousal'
p379
I2
sS'seen'
p380
I21
sS'seem'
p381
I7
sS'sounding'
p382
I1
sS'seek'
p383
I7
sS'tells'
p384
I2
sS'centerless'
p385
I1
sS'affairs'
p386
I1
sS'erxtensively'
p387
I1
sS'horde'
p388
I1
sS'person'
p389
I4
sS'damental'
p390
I1
sS'responsible'
p391
I2
sS'communicative'
p392
I2
sS'impotent'
p393
I1
sS'reactivity'
p394
I1
sS'causing'
p395
I2
sS'transnational'
p396
I1
sS'davidson'
p397
I1
sS'reverberates'
p398
I1
sS'shall'
p399
I5
sS'kristeva'
p400
I1
sS'nuevos'
p401
I1
sS'object'
p402
I33
sS'phonograph'
p403
I2
sS'cinematic'
p404
I8
sS'resonates'
p405
I2
sS'affirmation'
p406
I1
sS'oil'
p407
I1
sS'cellular'
p408
I9
sS'preassure'
p409
I1
sS'morality'
p410
I1
sS'broadcast'
p411
I2
sS'don'
p412
I1
sS'observation'
p413
I2
sS'medical'
p414
I1
sS'breathes'
p415
I1
sS'spend'
p416
I1
sS'points'
p417
I9
sS'principle'
p418
I25
sS'interacitve'
p419
I1
sS'nineteenth'
p420
I2
sS'consumer'
p421
I1
sS'incomplete'
p422
I2
sS'endles'
p423
I1
sS'incorporate'
p424
I2
sS'unleashed'
p425
I2
sS'punk'
p426
I1
sS'tweo'
p427
I1
sS'meadia'
p428
I1
sS'meetings'
p429
I1
sS'ending'
p430
I3
sS'attempts'
p431
I1
sS'abilities'
p432
I1
sS'participate'
p433
I1
sS'lethal'
p434
I1
sS'range'
p435
I2
sS'touches'
p436
I2
sS'copy'
p437
I2
sS'divinity'
p438
I1
sS'unleashes'
p439
I1
sS'itinerant'
p440
I1
sS'cousins'
p441
I1
sS'topological'
p442
I2
sS'appreciated'
p443
I1
sS'theme'
p444
I6
sS'semantics'
p445
I2
sS'instrumentalist'
p446
I1
sS'integrate'
p447
I1
sS'ommunity'
p448
I3
sS'interatcion'
p449
I1
sS'trans-european'
p450
I2
sS'establishes'
p451
I3
sS'wide'
p452
I4
sS'principalmente'
p453
I1
sS'inoperative'
p454
I7
sS'stop'
p455
I4
sS'perceive'
p456
I1
sS'foremost'
p457
I2
sS'ownmost'
p458
I1
sS'reversal'
p459
I2
sS'net'
p460
I4
sS'societies'
p461
I2
sS'forbids'
p462
I1
sS'traverses'
p463
I2
sS'fields'
p464
I5
sS'mythologises'
p465
I1
sS'eyelids'
p466
I1
sS'traversed'
p467
I4
sS'architecture'
p468
I4
sS'framers'
p469
I1
sS'release'
p470
I1
sS'compilers'
p471
I1
sS'ears'
p472
I3
sS'respond'
p473
I4
sS'ethical'
p474
I3
sS'programmatic'
p475
I1
sS'decides'
p476
I2
sS'disaster'
p477
I1
sS'fair'
p478
I1
sS'phenomenologically'
p479
I1
sS'imitate'
p480
I1
sS'consummation'
p481
I1
sS'testing'
p482
I1
sS'evolving'
p483
I4
sS'zones'
p484
I1
sS'music-historical'
p485
I1
sS'decided'
p486
I2
sS'result'
p487
I11
sS'fail'
p488
I2
sS'resigned'
p489
I1
sS'best'
p490
I4
sS'subject'
p491
I81
sS'said'
p492
I5
sS'sail'
p493
I1
sS'any-space-whatever'
p494
I1
sS'artificial'
p495
I4
sS'narrates'
p496
I1
sS'hpschd'
p497
I1
sS'implicit'
p498
I3
sS'score'
p499
I1
sS'humankind'
p500
I1
sS'oedipal'
p501
I1
sS'conceptual'
p502
I12
sS'sorts'
p503
I3
sS'preserve'
p504
I2
sS'outstrips'
p505
I1
sS'juxtapose'
p506
I2
sS'men'
p507
I8
sS'charatceer'
p508
I1
sS'parallels'
p509
I3
sS'extend'
p510
I2
sS'nature'
p511
I33
sS'disenchantment'
p512
I2
sS'consecuently'
p513
I1
sS'noise-reduction'
p514
I1
sS'drew'
p515
I1
sS'extent'
p516
I9
sS'gentry'
p517
I1
sS'carbon'
p518
I2
sS'herd'
p519
I1
sS'topology'
p520
I1
sS'suggested'
p521
I3
sS'patented'
p522
I1
sS'accident'
p523
I1
sS'refinement'
p524
I1
sS'resistant'
p525
I4
sS'gathering'
p526
I2
sS'uncertainty'
p527
I4
sS'against'
p528
I15
sS'media-elements'
p529
I2
sS'una'
p530
I1
sS'und'
p531
I1
sS'unconsciousnesses'
p532
I1
sS'logic'
p533
I20
sS'uni'
p534
I1
sS'contribution'
p535
I1
sS'argue'
p536
I2
sS'confronted'
p537
I1
sS'and'
p538
I1409
sS'alternate'
p539
I1
sS'exemplary'
p540
I2
sS'appeared'
p541
I4
sS'meaningfulness'
p542
I3
sS'incessant'
p543
I2
sS'inherernt'
p544
I1
sS'active'
p545
I4
sS'diff'
p546
I8
sS'objectifiable'
p547
I1
sS'apprehended'
p548
I1
sS'sonsisgn'
p549
I1
sS'immobile'
p550
I1
sS'reconsideration'
p551
I1
sS'basis'
p552
I10
sS'union'
p553
I1
sS'three'
p554
I6
sS'orthodoxy'
p555
I1
sS'subsidy'
p556
I3
sS'much'
p557
I25
sS'interest'
p558
I3
sS'basic'
p559
I7
sS'privilege'
p560
I2
sS'superhuman'
p561
I1
sS'formalized'
p562
I1
sS'exhibition'
p563
I1
sS'obtained'
p564
I2
sS'life'
p565
I25
sS'efficacy'
p566
I1
sS'quantities'
p567
I1
sS'worker'
p568
I1
sS'filmmaker'
p569
I3
sS'risms'
p570
I1
sS'hollowed'
p571
I1
sS'child'
p572
I2
sS'worked'
p573
I3
sS'fordbidden'
p574
I1
sS'commerce'
p575
I5
sS'affirm'
p576
I1
sS'contingencies'
p577
I1
sS'economies'
p578
I2
sS'spontaneously'
p579
I1
sS'employ'
p580
I1
sS'near'
p581
I1
sS'time-image'
p582
I1
sS'reifies'
p583
I1
sS'suspense'
p584
I1
sS'balance'
p585
I1
sS'nonsimulation'
p586
I1
sS'remembering'
p587
I1
sS'catalyzes'
p588
I1
sS'played'
p589
I5
sS'p69'
p590
I1
sS'is'
p591
I1074
sS'it'
p592
I484
sS'conditioned'
p593
I2
sS'ii'
p594
I2
sS'characterize'
p595
I3
sS'in'
p596
I948
sS'violin'
p597
I1
sS'ic'
p598
I2
sS'mouse'
p599
I1
sS'specter'
p600
I5
sS'sever'
p601
I1
sS'if'
p602
I55
sS'europeas'
p603
I1
sS'shimmering'
p604
I1
sS'originary'
p605
I10
sS'things'
p606
I20
sS'realizing'
p607
I1
sS'format'
p608
I2
sS'ideenlehre'
p609
I1
sS'roland'
p610
I1
sS'split'
p611
I4
sS'mixtures'
p612
I1
sS'principals'
p613
I2
sS'rebound'
p614
I4
sS'european'
p615
I2
sS'exertion'
p616
I2
sS'fairly'
p617
I3
sS'advocate'
p618
I1
sS'effortlessly'
p619
I1
sS'stream-based'
p620
I1
sS'self-sufficiency'
p621
I1
sS'delight'
p622
I2
sS'grammar'
p623
I1
sS'ownership'
p624
I1
sS'military'
p625
I1
sS'geist'
p626
I1
sS'opportunity'
p627
I5
sS'thoughts'
p628
I2
sS'registering'
p629
I1
sS'practiced'
p630
I2
sS'programs'
p631
I5
sS'changes'
p632
I9
sS'stimuli'
p633
I2
sS'stillness'
p634
I1
sS'materials'
p635
I4
sS'antinarrative'
p636
I1
sS'qualities'
p637
I4
sS'simulated'
p638
I5
sS'quantitative'
p639
I1
sS'finite-being'
p640
I1
sS'corporate'
p641
I1
sS'left'
p642
I9
sS'protocol'
p643
I1
sS'just'
p644
I32
sS'transforma'
p645
I1
sS'distribute'
p646
I1
sS'rotated'
p647
I1
sS'ideas'
p648
I10
sS'assigned'
p649
I3
sS'psych'
p650
I1
sS'transforms'
p651
I4
sS'human'
p652
I64
sS'facts'
p653
I1
sS'yes'
p654
I2
sS'portrayed'
p655
I1
sS'divide'
p656
I2
sS'enters'
p657
I2
sS'hal'
p658
I1
sS'subtracts'
p659
I1
sS'infinitely'
p660
I3
sS'regarded'
p661
I1
sS'had'
p662
I11
sS'magistrates'
p663
I1
sS'neurobiological'
p664
I3
sS'disparity'
p665
I1
sS'collections'
p666
I3
sS'prison'
p667
I1
sS'has'
p668
I142
sS'hat'
p669
I1
sS'hav'
p670
I2
sS'designate'
p671
I1
sS'cognitve'
p672
I1
sS'involuntary'
p673
I2
sS'survival'
p674
I3
sS'posed'
p675
I1
sS'possible'
p676
I33
sS'possibly'
p677
I1
sS'counterintuitive'
p678
I1
sS'birth'
p679
I5
sS'telos'
p680
I2
sS'shadow'
p681
I1
sS'unique'
p682
I11
sS'dreams'
p683
I2
sS'desire'
p684
I22
sS'psychological'
p685
I6
sS'articulated'
p686
I6
sS'nude'
p687
I1
sS'shaped'
p688
I1
sS'univocity'
p689
I1
sS'remind'
p690
I1
sS'steps'
p691
I1
sS'battlefield'
p692
I1
sS'right'
p693
I9
sS'old'
p694
I13
sS'transmisi'
p695
I1
sS'crowd'
p696
I1
sS'people'
p697
I13
sS'somehow'
p698
I1
sS'dead'
p699
I3
sS'commonplace'
p700
I1
sS'insistence'
p701
I2
sS'pain'
p702
I2
sS'encarnada'
p703
I1
sS'codifiable'
p704
I1
sS'enemies'
p705
I2
sS'theatrical'
p706
I1
sS'sociology'
p707
I2
sS'trace'
p708
I11
sS'for'
p709
I266
sS'bottom'
p710
I3
sS'electromagnetic'
p711
I1
sS'divested'
p712
I1
sS'inhuman'
p713
I1
sS'archivist'
p714
I2
sS'creative'
p715
I14
sS'repression'
p716
I9
sS'when'
p717
I33
sS'imposes'
p718
I1
sS'exposition'
p719
I14
sS'landscape'
p720
I4
sS'things-in-themselves'
p721
I1
sS'theological'
p722
I1
sS'text-setting'
p723
I1
sS'meanings'
p724
I5
sS'novelties'
p725
I1
sS'nonperceptible'
p726
I1
sS'burn'
p727
I1
sS'oscillating'
p728
I2
sS'translated'
p729
I3
sS'sift'
p730
I1
sS'allgorithms'
p731
I1
sS'shifting'
p732
I3
sS'losing'
p733
I3
sS'codified'
p734
I1
sS'transcends'
p735
I1
sS'citizens'
p736
I2
sS'irretrievably'
p737
I1
sS'automatically'
p738
I1
sS'humans-among-themselves'
p739
I1
sS'raised'
p740
I1
sS'statements'
p741
I3
sS'formerly'
p742
I1
sS'ontol'
p743
I1
sS'logo'
p744
I1
sS'marshall'
p745
I1
sS'fetishization'
p746
I1
sS'hallmark'
p747
I1
sS'intellectual'
p748
I1
sS'son'
p749
I4
sS'down'
p750
I14
sS'creativ'
p751
I1
sS'beings'
p752
I15
sS'raises'
p753
I1
sS'narration'
p754
I1
sS'refined'
p755
I1
sS'reducing'
p756
I2
sS'superrepression'
p757
I2
sS'communists'
p758
I1
sS'authorizes'
p759
I1
sS'fabric'
p760
I2
sS'waits'
p761
I1
sS'support'
p762
I6
sS'constantly'
p763
I3
sS'approximate'
p764
I1
sS'grasping'
p765
I1
sS'editor'
p766
I1
sS'jank'
p767
I1
sS'call'
p768
I18
sS'happy'
p769
I2
sS'teletype'
p770
I1
sS'multiscale'
p771
I2
sS'modernisms'
p772
I1
sS'form'
p773
I87
sS'offer'
p774
I6
sS'certainties'
p775
I1
sS'ethe'
p776
I1
sS'auto-position'
p777
I1
sS'correlationism'
p778
I1
sS'idealized'
p779
I3
sS'failure'
p780
I4
sS'incorporation'
p781
I3
sS'graphism'
p782
I1
sS'synonym'
p783
I1
sS'infor'
p784
I3
sS'twenty-first-century'
p785
I1
sS'continuance'
p786
I1
sS'builds'
p787
I3
sS'genealogy'
p788
I3
sS'understood'
p789
I17
sS'extremity'
p790
I1
sS'prevents'
p791
I1
sS'inside'
p792
I13
sS'attached'
p793
I3
sS'bounds'
p794
I1
sS'devices'
p795
I1
sS'tell'
p796
I4
sS'work-in-progress'
p797
I1
sS'lays'
p798
I1
sS'stages'
p799
I2
sS'delete'
p800
I1
sS'diagnose'
p801
I1
sS'fiefdoms'
p802
I1
sS'ommunion'
p803
I1
sS'adopt'
p804
I3
sS'liberal'
p805
I1
sS'classic'
p806
I3
sS'publica'
p807
I1
sS'covers'
p808
I1
sS'moderns'
p809
I5
sS'exist'
p810
I9
sS'signification'
p811
I11
sS'negotiations'
p812
I1
sS'courtesan'
p813
I1
sS'marking'
p814
I1
sS'marxist'
p815
I3
sS'demythologization'
p816
I1
sS'synchresis'
p817
I2
sS'eventual'
p818
I1
sS'authoritative'
p819
I3
sS'generally'
p820
I3
sS'freudian'
p821
I3
sS'actor'
p822
I5
sS'republic'
p823
I2
sS'ambitious'
p824
I2
sS'digital'
p825
I45
sS'database-related'
p826
I1
sS'marxism'
p827
I2
sS'smell'
p828
I1
sS'intend'
p829
I1
sS'models'
p830
I8
sS'felt'
p831
I1
sS'rien'
p832
I1
sS'deathbed'
p833
I1
sS'invested'
p834
I2
sS'overdetermined'
p835
I1
sS'variable'
p836
I5
sS'ghost-seer'
p837
I1
sS'feld'
p838
I1
sS'explosions'
p839
I1
sS'jones'
p840
I1
sS'societ'
p841
I1
sS'reorganization'
p842
I1
sS'happening'
p843
I1
sS'landscappe'
p844
I1
sS'daily'
p845
I3
sS'stripping'
p846
I1
sS'time'
p847
I83
sS'decision'
p848
I2
sS'unding'
p849
I1
sS'breadth'
p850
I1
sS'chain'
p851
I2
sS'film-making'
p852
I1
sS'activated'
p853
I2
sS'invent'
p854
I1
sS'manifetations'
p855
I1
sS'rming'
p856
I1
sS'skin'
p857
I2
sS'sociological'
p858
I1
sS'hyper-objectification'
p859
I1
sS'venice'
p860
I3
sS'anticipation'
p861
I2
sS'ver'
p862
I1
sS'outdated'
p863
I1
sS'freelance'
p864
I1
sS'jarman'
p865
I1
sS'father'
p866
I1
sS'confounds'
p867
I1
sS'suspending'
p868
I1
sS'finally'
p869
I9
sS'distings'
p870
I1
sS'marks'
p871
I1
sS'exscribes'
p872
I1
sS'analogous'
p873
I2
sS'downloading'
p874
I1
sS'telegraph'
p875
I2
sS'continueds'
p876
I1
sS'navigable'
p877
I2
sS'antimodern'
p878
I1
sS'consolidation'
p879
I1
sS'choice'
p880
I4
sS'suportive'
p881
I1
sS'enslavement'
p882
I1
sS'stays'
p883
I1
sS'join'
p884
I1
sS'exact'
p885
I1
sS'judaism'
p886
I1
sS'tear'
p887
I1
sS'die'
p888
I2
sS'permits'
p889
I2
sS'inscribes'
p890
I1
sS'travels'
p891
I1
sS'unessential'
p892
I1
sS'erasures'
p893
I1
sS'diy'
p894
I2
sS'inscribed'
p895
I8
sS'speculation'
p896
I1
sS'perceptual'
p897
I2
sS'technocracy'
p898
I1
sS'succint'
p899
I1
sS'dis'
p900
I1
sS'spiritual'
p901
I3
sS'unexpected'
p902
I1
sS'thinkers'
p903
I1
sS'occurrence'
p904
I2
sS'adorno'
p905
I2
sS'collage'
p906
I1
sS'dealing'
p907
I2
sS'literature'
p908
I6
sS'sign'
p909
I10
sS'erotic'
p910
I1
sS'hegemonic'
p911
I4
sS'joie'
p912
I1
sS'negtiation'
p913
I1
sS'resurgence'
p914
I1
sS'adds'
p915
I3
sS'sartre'
p916
I1
sS'unfinish'
p917
I1
sS'current'
p918
I4
sS'antrhopologie'
p919
I1
sS'international'
p920
I2
sS'celebrates'
p921
I1
sS'art-making'
p922
I1
sS'filled'
p923
I1
sS'tecture'
p924
I1
sS'm-configuration'
p925
I1
sS'digitalization'
p926
I1
sS'continuing'
p927
I1
sS'french'
p928
I5
sS'understanding'
p929
I12
sS'slow'
p930
I1
sS'address'
p931
I6
sS'alone'
p932
I8
sS'along'
p933
I5
sS'dice'
p934
I1
sS'box'
p935
I3
sS'environs'
p936
I1
sS'accomplishes'
p937
I1
sS'bu'
p938
I1
sS'communicaion'
p939
I1
sS'shift'
p940
I5
sS'commonly'
p941
I2
sS'somatic'
p942
I1
sS'exploitation'
p943
I3
sS'accomplished'
p944
I1
sS'simultaneous'
p945
I4
sS'suggestion'
p946
I1
sS'high-tech'
p947
I1
sS'studies'
p948
I8
sS'engineer'
p949
I1
sS'tasks'
p950
I1
sS'love'
p951
I5
sS'raise'
p952
I1
sS'actualization'
p953
I1
sS'merely'
p954
I5
sS'humanity'
p955
I6
sS'prefer'
p956
I1
sS'logical'
p957
I4
sS'receivin'
p958
I1
sS'marvelous'
p959
I2
sS'self-sufficient'
p960
I1
sS'logically'
p961
I1
sS'inverses'
p962
I1
sS'reinvention'
p963
I1
sS'traversing'
p964
I2
sS'reformulates'
p965
I1
sS'monaural'
p966
I1
sS'sympathetic'
p967
I2
sS'oreille'
p968
I1
sS'opposes'
p969
I2
sS'henri'
p970
I1
sS'wealth'
p971
I1
sS'working'
p972
I5
sS'intensively'
p973
I1
sS'representing'
p974
I1
sS'positive'
p975
I2
sS'yerushalmi'
p976
I1
sS'distancing'
p977
I1
sS'france'
p978
I1
sS'insides'
p979
I1
sS'explicitly'
p980
I1
sS'proposes'
p981
I7
sS'opposed'
p982
I1
sS'films'
p983
I2
sS'scope'
p984
I1
sS'theoretical'
p985
I12
sS'high-speed'
p986
I2
sS'introducing'
p987
I1
sS'sharing'
p988
I30
sS'stabilizable'
p989
I1
sS'afford'
p990
I1
sS'ooo'
p991
I1
sS'apparent'
p992
I4
sS'transversate'
p993
I1
sS'spivak'
p994
I1
sS'subsistent'
p995
I1
sS'uential'
p996
I1
sS'visual'
p997
I26
sS'everywhere'
p998
I1
sS'beholden'
p999
I1
sS'given'
p1000
I27
sS'behalf'
p1001
I2
sS'compressional'
p1002
I1
sS'logos'
p1003
I1
sS'rushdie'
p1004
I1
sS'transferral'
p1005
I1
sS'avoiding'
p1006
I1
sS'originally'
p1007
I4
sS'facilitating'
p1008
I2
sS'soul'
p1009
I1
sS'believes'
p1010
I3
sS'nether'
p1011
I1
sS'impasse'
p1012
I1
sS'printing'
p1013
I3
sS'values'
p1014
I5
sS'slowness'
p1015
I1
sS'printinc'
p1016
I1
sS'believed'
p1017
I1
sS'making'
p1018
I20
sS'detached'
p1019
I1
sS'repre'
p1020
I1
sS'admired'
p1021
I1
sS'okwui'
p1022
I1
sS'reification'
p1023
I1
sS'ranking'
p1024
I1
sS'romanticism'
p1025
I1
sS'agent'
p1026
I6
sS'sample'
p1027
I1
sS'allowed'
p1028
I1
sS'algebraical'
p1029
I1
sS'cause-and-effect'
p1030
I1
sS'listens'
p1031
I3
sS'lular'
p1032
I1
sS'monitoring'
p1033
I1
sS'metalanguages'
p1034
I1
sS'divided'
p1035
I2
sS'mingles'
p1036
I1
sS'entangled'
p1037
I1
sS'savou'
p1038
I2
sS'chemical'
p1039
I1
sS'subroutines'
p1040
I1
sS'pure'
p1041
I16
sS'parameter'
p1042
I3
sS'divides'
p1043
I1
sS'reconfigured'
p1044
I2
sS'map'
p1045
I2
sS'outlining'
p1046
I1
sS'designer'
p1047
I5
sS'explores'
p1048
I1
sS'arch-sonority'
p1049
I1
sS'may'
p1050
I33
sS'accessory'
p1051
I1
sS'applications'
p1052
I3
sS'explored'
p1053
I2
sS'reassessment'
p1054
I1
sS'date'
p1055
I1
sS'such'
p1056
I84
sS'destructive'
p1057
I1
sS'data'
p1058
I95
sS'time-which'
p1059
I1
sS'man'
p1060
I11
sS'relinquish'
p1061
I1
sS'sy'
p1062
I1
sS'aimless'
p1063
I1
sS'natural'
p1064
I6
sS'outline'
p1065
I3
sS'correlate'
p1066
I1
sS'conscious'
p1067
I13
sS'nomadic'
p1068
I1
sS'sw'
p1069
I1
sS'tale'
p1070
I1
sS'regressive'
p1071
I1
sS'subdivisions'
p1072
I1
sS'so'
p1073
I51
sS'block'
p1074
I1
sS'subsisting'
p1075
I1
sS'definitions'
p1076
I2
sS'affiramtion'
p1077
I1
sS'pulled'
p1078
I1
sS'se'
p1079
I7
sS'nearly'
p1080
I2
sS'shoes'
p1081
I1
sS'evaluative'
p1082
I1
sS'pointed'
p1083
I2
sS'find'
p1084
I12
sS'years'
p1085
I7
sS'stability'
p1086
I1
sS'course'
p1087
I6
sS'experiments'
p1088
I1
sS'seamless'
p1089
I1
sS'cuts'
p1090
I1
sS'argued'
p1091
I3
sS'begund'
p1092
I1
sS'benjamin'
p1093
I8
sS'tendency'
p1094
I3
sS'constituted'
p1095
I12
sS'derive'
p1096
I2
sS'group'
p1097
I2
sS'monitor'
p1098
I1
sS'infirmities'
p1099
I1
sS'interesting'
p1100
I1
sS'undermined'
p1101
I1
sS'globalization'
p1102
I2
sS'attraction'
p1103
I1
sS'constitutes'
p1104
I8
sS'suspension'
p1105
I4
sS'main'
p1106
I2
sS'decades'
p1107
I1
sS'instantly'
p1108
I1
sS'inite'
p1109
I1
sS'thereby'
p1110
I1
sS'views'
p1111
I1
sS'decentering'
p1112
I1
sS'contravened'
p1113
I1
sS'records'
p1114
I3
sS'overpowering'
p1115
I1
sS'compelled'
p1116
I2
sS'semiotics'
p1117
I9
sS'thus'
p1118
I53
sS'framed'
p1119
I2
sS'algorhythmnic'
p1120
I1
sS'widespread'
p1121
I1
sS'subordinated'
p1122
I2
sS'shoudl'
p1123
I1
sS'actuality'
p1124
I2
sS'feverish'
p1125
I1
sS'memorization'
p1126
I1
sS'artist'
p1127
I24
sS'repositories'
p1128
I1
sS'establishing'
p1129
I3
sS'breach'
p1130
I1
sS'trope'
p1131
I1
sS'liberating'
p1132
I1
sS'square'
p1133
I7
sS'retrieve'
p1134
I1
sS'cyberspace'
p1135
I1
sS'irremediably'
p1136
I1
sS'presages'
p1137
I1
sS'revised'
p1138
I2
sS'conventions'
p1139
I3
sS'blanks'
p1140
I1
sS'irremediable'
p1141
I1
sS'fingertips'
p1142
I1
sS'furniture'
p1143
I1
sS'stalbaum'
p1144
I1
sS'description'
p1145
I3
sS'emerges'
p1146
I4
sS'canvas'
p1147
I1
sS'container'
p1148
I4
sS'socialized'
p1149
I2
sS'serialist'
p1150
I1
sS'modulation'
p1151
I1
sS'contained'
p1152
I7
sS'investigation'
p1153
I1
sS'imperative'
p1154
I4
sS'emerged'
p1155
I4
sS'internet'
p1156
I9
sS'suggesting'
p1157
I2
sS'formula'
p1158
I2
sS'squares'
p1159
I1
sS'needing'
p1160
I1
sS'earlier'
p1161
I7
sS'ergineered'
p1162
I1
sS'mechanisms'
p1163
I1
sS'possibility'
p1164
I24
sS'plex'
p1165
I1
sS'arendt'
p1166
I2
sS'system_subject'
p1167
I2
sS'husserl'
p1168
I8
sS'intensely'
p1169
I1
sS'dematerialisation'
p1170
I1
sS'poems'
p1171
I2
sS'difital'
p1172
I1
sS'being-toward-death'
p1173
I1
sS'harnessed'
p1174
I1
sS'language'
p1175
I28
sS'locations'
p1176
I5
sS'motor'
p1177
I4
sS'collapsing'
p1178
I1
sS'programming'
p1179
I4
sS'disguises'
p1180
I2
sS'dissimiulation'
p1181
I1
sS'massive'
p1182
I1
sS'relational'
p1183
I13
sS'think'
p1184
I11
sS'substrates'
p1185
I1
sS'first'
p1186
I51
sS'philosophizes'
p1187
I1
sS'ignored'
p1188
I1
sS'one'
p1189
I152
sS'proto-conscious'
p1190
I1
sS'networks'
p1191
I17
sS'sonsigns'
p1192
I3
sS'suspended'
p1193
I4
sS'habitation'
p1194
I2
sS'carry'
p1195
I1
sS'sounds'
p1196
I8
sS'lippard'
p1197
I1
sS'open'
p1198
I19
sS'city'
p1199
I3
sS'little'
p1200
I1
sS'man--the'
p1201
I1
sS'occupy'
p1202
I6
sS'evolution'
p1203
I7
sS'structured'
p1204
I5
sS'subjectified'
p1205
I1
sS'modernism'
p1206
I9
sS'anyone'
p1207
I1
sS'indicate'
p1208
I3
sS'judgements'
p1209
I1
sS'twenties'
p1210
I1
sS'constants'
p1211
I1
sS'modernist'
p1212
I1
sS'realization'
p1213
I1
sS'individ'
p1214
I1
sS'structures'
p1215
I14
sS'williams'
p1216
I2
sS'bear'
p1217
I2
sS'coute'
p1218
I5
sS'eyes'
p1219
I1
sS'artworks'
p1220
I3
sS'activity'
p1221
I10
sS'phenomenology'
p1222
I7
sS'overgomces'
p1223
I1
sS'continuous'
p1224
I5
sS'accurately'
p1225
I1
sS'being-at-an-end'
p1226
I1
sS'harbour'
p1227
I1
sS'absorbs'
p1228
I1
sS'photographic'
p1229
I1
sS'partitura'
p1230
I1
sS'connections'
p1231
I13
sS'campbell-kelly'
p1232
I1
sS'third'
p1233
I6
sS'favors'
p1234
I1
sS'cificity'
p1235
I1
sS'browning'
p1236
I1
sS'future'
p1237
I22
sS'doublas'
p1238
I1
sS'were'
p1239
I13
sS'individualized'
p1240
I1
sS'gigantic'
p1241
I1
sS'russia'
p1242
I1
sS'inferring'
p1243
I1
sS'addressing'
p1244
I2
sS'turned'
p1245
I2
sS'argument'
p1246
I3
sS'voices'
p1247
I4
sS'say'
p1248
I26
sS'himself'
p1249
I9
sS'buried'
p1250
I1
sS'spectacle'
p1251
I1
sS'uninterrupted'
p1252
I1
sS'turner'
p1253
I1
sS'allel'
p1254
I1
sS'saw'
p1255
I1
sS'emer'
p1256
I1
sS'encompassing'
p1257
I1
sS'efficient'
p1258
I3
sS'no-one'
p1259
I1
sS'note'
p1260
I7
sS'potential'
p1261
I9
sS'take'
p1262
I15
sS'converged'
p1263
I1
sS'performance'
p1264
I12
sS'channel'
p1265
I1
sS'paik'
p1266
I1
sS'printer'
p1267
I1
sS'altered'
p1268
I3
sS'theatre'
p1269
I2
sS'opposite'
p1270
I3
sS'self-reflexive'
p1271
I2
sS'insanity'
p1272
I2
sS'assault'
p1273
I1
sS'printed'
p1274
I4
sS'pair'
p1275
I1
sS'pages'
p1276
I1
sS'conspicuous'
p1277
I1
sS'stockhausen'
p1278
I1
sS'weakening'
p1279
I1
sS'operate'
p1280
I7
sS'archi'
p1281
I3
sS'especially'
p1282
I8
sS'surprising'
p1283
I5
sS'fills'
p1284
I1
sS'montage'
p1285
I2
sS'intra-action'
p1286
I1
sS'drive'
p1287
I5
sS'pernicious'
p1288
I1
sS'federal'
p1289
I1
sS'temporality'
p1290
I2
sS'laws'
p1291
I7
sS'precise'
p1292
I5
sS'dissecting'
p1293
I1
sS'lexicon'
p1294
I1
sS'shot'
p1295
I2
sS'show'
p1296
I1
sS'technogenesis'
p1297
I1
sS'imagines'
p1298
I2
sS'controlamos'
p1299
I1
sS'contemporary'
p1300
I22
sS'friction'
p1301
I2
sS'bedside'
p1302
I1
sS'threshold'
p1303
I2
sS'privileged'
p1304
I8
sS'estos'
p1305
I1
sS'imagined'
p1306
I1
sS'othering'
p1307
I1
sS'women'
p1308
I4
sS'logo-phonocentrism'
p1309
I1
sS'ensembles'
p1310
I1
sS're-emerged'
p1311
I1
sS'principality'
p1312
I1
sS'componemos'
p1313
I2
sS'histories'
p1314
I3
sS'collapses'
p1315
I2
sS'liberation'
p1316
I2
sS'going'
p1317
I6
sS'black'
p1318
I3
sS'enthusiasm'
p1319
I1
sS'awareness'
p1320
I2
sS'profferatory'
p1321
I1
sS'dissimilar'
p1322
I1
sS'novels'
p1323
I2
sS'get'
p1324
I2
sS'contracts'
p1325
I1
sS'morphological'
p1326
I1
sS'designated'
p1327
I2
sS'simplistic'
p1328
I1
sS'monde'
p1329
I1
sS'etermed'
p1330
I1
sS'inter-subjective'
p1331
I1
sS'framing'
p1332
I1
sS'gee'
p1333
I1
sS'erent'
p1334
I1
sS'recombinant'
p1335
I1
sS'secondary'
p1336
I3
sS'reading'
p1337
I5
sS'jectivity'
p1338
I1
sS'settings'
p1339
I1
sS'communicates'
p1340
I5
sS'transzendentale'
p1341
I1
sS'routinely'
p1342
I1
sS'multitextuality'
p1343
I2
sS'circuits'
p1344
I2
sS'deferral'
p1345
I2
sS'liable'
p1346
I1
sS'uncover'
p1347
I1
sS'photographically'
p1348
I1
sS'where'
p1349
I37
sS'communicated'
p1350
I1
sS'vision'
p1351
I4
sS'declared'
p1352
I2
sS'blurred'
p1353
I1
sS'relative'
p1354
I5
sS'sean'
p1355
I1
sS'eliminating'
p1356
I1
sS'impressions'
p1357
I1
sS'dialectic'
p1358
I4
sS'aroused'
p1359
I2
sS'radiates'
p1360
I1
sS'actualized'
p1361
I1
sS'annexing'
p1362
I1
sS'dematerialized'
p1363
I3
sS'compounds'
p1364
I1
sS'mystical'
p1365
I2
sS'ruptures'
p1366
I1
sS'sites'
p1367
I4
sS'boundaries'
p1368
I4
sS'behind'
p1369
I5
sS'bureau'
p1370
I1
sS'affecting'
p1371
I1
sS'before'
p1372
I20
sS'across'
p1373
I4
sS'mul'
p1374
I1
sS'infrastructure'
p1375
I4
sS'jobs'
p1376
I1
sS'vertical'
p1377
I2
sS'legitimacy'
p1378
I1
sS'screen'
p1379
I2
sS'tacit'
p1380
I1
sS'punto'
p1381
I1
sS'beyond-sense'
p1382
I1
sS'concentrate'
p1383
I1
sS'awards'
p1384
I1
sS'progessive'
p1385
I1
sS'undermine'
p1386
I1
sS'motivations'
p1387
I1
sS'circumference'
p1388
I1
sS'composer-subject'
p1389
I1
sS'many'
p1390
I22
sS'according'
p1391
I20
sS'called'
p1392
I28
sS'sublation'
p1393
I1
sS'mana'
p1394
I1
sS'psychologized'
p1395
I1
sS'expression'
p1396
I13
sS'jean-luc'
p1397
I1
sS'stretches'
p1398
I1
sS'colelctive'
p1399
I1
sS'stream'
p1400
I1
sS'logocentric'
p1401
I2
sS'innovations'
p1402
I3
sS'maintained'
p1403
I2
sS'intersubjective'
p1404
I5
sS'ubterdeoebdebce'
p1405
I1
sS'de-centered'
p1406
I1
sS'dislocation'
p1407
I2
sS'writing'
p1408
I32
sS'considers'
p1409
I2
sS'considering'
p1410
I1
sS'epistemology'
p1411
I3
sS'unusual'
p1412
I1
sS'unconsciousness'
p1413
I1
sS'stretch'
p1414
I1
sS'west'
p1415
I1
sS'locally'
p1416
I1
sS'pdroduction'
p1417
I1
sS'mark'
p1418
I4
sS'breath'
p1419
I1
sS'graspable'
p1420
I1
sS'combined'
p1421
I1
sS'reflective'
p1422
I1
sS'borders'
p1423
I3
sS'respondemos'
p1424
I1
sS'marx'
p1425
I3
sS'differently'
p1426
I4
sS'wants'
p1427
I2
sS'superficies'
p1428
I1
sS'enable'
p1429
I2
sS'instantiated'
p1430
I4
sS'thousand'
p1431
I3
sS'formed'
p1432
I4
sS'dangerous'
p1433
I2
sS'photos'
p1434
I3
sS'observe'
p1435
I1
sS'wake'
p1436
I2
sS'unconditioned'
p1437
I1
sS'eventually'
p1438
I1
sS'former'
p1439
I5
sS'those'
p1440
I17
sS'sound'
p1441
I69
sS'wherewithal'
p1442
I1
sS'cyberculture'
p1443
I2
sS'folding'
p1444
I1
sS'profane'
p1445
I1
sS'non-art'
p1446
I1
sS'prominence'
p1447
I2
sS'engineering'
p1448
I1
sS'executes'
p1449
I1
sS'retroalimentaci'
p1450
I1
sS'residence'
p1451
I2
sS'situation'
p1452
I3
sS'mole-like'
p1453
I1
sS'tal'
p1454
I1
sS'burriaud'
p1455
I1
sS'prevalence'
p1456
I1
sS'characteristics'
p1457
I4
sS'engaged'
p1458
I2
sS'marcel'
p1459
I1
sS'nomenclature'
p1460
I1
sS'middle'
p1461
I2
sS'sudden'
p1462
I1
sS'gauged'
p1463
I1
sS'varela'
p1464
I1
sS'engages'
p1465
I2
sS'technology'
p1466
I38
sS'everyday'
p1467
I2
sS'movements'
p1468
I4
sS'binary'
p1469
I3
sS'different'
p1470
I41
sS'harsh'
p1471
I1
sS'threatens'
p1472
I1
sS'same'
p1473
I39
sS'surveillance'
p1474
I3
sS'disembodiment'
p1475
I2
sS'speech'
p1476
I5
sS'differenc'
p1477
I1
sS'collabo'
p1478
I2
sS'unconsious'
p1479
I3
sS'epist'
p1480
I2
sS'reverberation'
p1481
I1
sS'breakdown'
p1482
I1
sS'interweaving'
p1483
I1
sS'extended'
p1484
I7
sS'assist'
p1485
I1
sS'structurally'
p1486
I1
sS'scientist'
p1487
I1
sS'constraining'
p1488
I1
sS'running'
p1489
I1
sS'wired'
p1490
I1
sS'infralanguage'
p1491
I1
sS'ois'
p1492
I1
sS'by-product'
p1493
I1
sS'supports'
p1494
I1
sS'effectivity'
p1495
I2
sS'tthe'
p1496
I2
sS'macro'
p1497
I1
sS'oppositions'
p1498
I2
sS'definiton'
p1499
I1
sS'solve'
p1500
I1
sS'authoring'
p1501
I1
sS'wasves'
p1502
I1
sS'dimension'
p1503
I10
sS'dictare'
p1504
I1
sS'among'
p1505
I12
sS'being'
p1506
I92
sS'im-mediacy'
p1507
I1
sS'backs'
p1508
I1
sS'filtering'
p1509
I5
sS'hayles'
p1510
I4
sS'aspect'
p1511
I6
sS'summed'
p1512
I1
sS'tinguished'
p1513
I1
sS'madness'
p1514
I2
sS'flavor'
p1515
I1
sS'beins'
p1516
I1
sS'singularity'
p1517
I13
sS'shaman'
p1518
I2
sS'iocate'
p1519
I1
sS'grounded'
p1520
I2
sS'conceptions'
p1521
I2
sS'instrument'
p1522
I4
sS'deffered'
p1523
I1
sS'greenaway'
p1524
I2
sS'coded'
p1525
I2
sS'aspects'
p1526
I2
sS'around'
p1527
I12
sS'fulfillment'
p1528
I1
sS'period'
p1529
I9
sS'gestures'
p1530
I3
sS'spokespersons'
p1531
I2
sS'grid'
p1532
I2
sS'interprpetations'
p1533
I1
sS'world'
p1534
I90
sS'snare'
p1535
I1
sS'aiming'
p1536
I1
sS'mod'
p1537
I1
sS'sensational'
p1538
I1
sS'identifying'
p1539
I1
sS'tionship'
p1540
I2
sS'serves'
p1541
I3
sS'server'
p1542
I2
sS'chamber'
p1543
I1
sS'audience'
p1544
I14
sS'grants'
p1545
I2
sS'either'
p1546
I12
sS'clay'
p1547
I1
sS'undifferentiated'
p1548
I1
sS'participa'
p1549
I1
sS'jews'
p1550
I1
sS'ecouraged'
p1551
I1
sS'conditional'
p1552
I1
sS'moving'
p1553
I6
sS'generalized'
p1554
I2
sS'supplementary'
p1555
I4
sS'erase'
p1556
I2
sS'all-pervading'
p1557
I1
sS'specified'
p1558
I2
sS'images'
p1559
I45
sS'divine'
p1560
I2
sS'joan'
p1561
I1
sS'generates'
p1562
I2
sS'composers'
p1563
I6
sS'heidegger'
p1564
I9
sS'dialectical'
p1565
I3
sS'dimensions'
p1566
I6
sS'microtopias'
p1567
I1
sS'symbiotic'
p1568
I3
sS'disciplinary'
p1569
I1
sS'flow'
p1570
I7
sS'decrescendo'
p1571
I1
sS'partials'
p1572
I1
sS'critical'
p1573
I9
sS'worldviews'
p1574
I1
sS'expressing'
p1575
I1
sS'defferal'
p1576
I1
sS'greyscale'
p1577
I1
sS'mosley'
p1578
I1
sS'highbrow'
p1579
I2
sS'understandings'
p1580
I3
sS'fabrican'
p1581
I1
sS'refer'
p1582
I6
sS'accessing'
p1583
I1
sS'scientific'
p1584
I6
sS'power'
p1585
I39
sS'intimate'
p1586
I4
sS'retains'
p1587
I5
sS'ration'
p1588
I1
sS'arts'
p1589
I7
sS'dasein'
p1590
I1
sS'scientifiv'
p1591
I1
sS'broken'
p1592
I2
sS'sayable'
p1593
I1
sS'refers'
p1594
I13
sS'conducting'
p1595
I1
sS'posthumously'
p1596
I1
sS'origins'
p1597
I1
sS'contagion'
p1598
I3
sS'industry'
p1599
I1
sS'capable'
p1600
I5
sS'favorite'
p1601
I1
sS'generated'
p1602
I4
sS'side'
p1603
I2
sS'practical'
p1604
I3
sS'airline'
p1605
I1
sS'act'
p1606
I27
sS'mean'
p1607
I11
sS'sonority'
p1608
I4
sS'metaphors'
p1609
I3
sS'allowing'
p1610
I4
sS'purported'
p1611
I1
sS'conceptualization'
p1612
I1
sS'munication'
p1613
I1
sS'interdependently'
p1614
I1
sS'image'
p1615
I44
sS'ungrund'
p1616
I1
sS'blessed'
p1617
I1
sS'mmeans'
p1618
I1
sS'ineffable'
p1619
I2
sS'references'
p1620
I1
sS'parties'
p1621
I2
sS'tables'
p1622
I2
sS'alas'
p1623
I1
sS'conceptually'
p1624
I2
sS'amassed'
p1625
I1
sS'meta-narratives'
p1626
I1
sS'her'
p1627
I14
sS'totalitarian'
p1628
I1
sS'hey'
p1629
I1
sS'significationthe'
p1630
I1
sS'ariadne'
p1631
I1
sS'myths'
p1632
I2
sS'appellare'
p1633
I1
sS'cisely'
p1634
I1
sS'rightful'
p1635
I1
sS'bubble'
p1636
I1
sS'self-making'
p1637
I1
sS'complete'
p1638
I6
sS'enough'
p1639
I4
sS'principles'
p1640
I2
sS'alemania'
p1641
I1
sS'linguistic'
p1642
I4
sS'elimination'
p1643
I1
sS'unreliable'
p1644
I1
sS'technologies'
p1645
I37
sS'with'
p1646
I220
sS'belated'
p1647
I1
sS'volume'
p1648
I1
sS'space-time'
p1649
I1
sS'romantic'
p1650
I3
sS'naming'
p1651
I3
sS'lectronica'
p1652
I1
sS'asopposedto'
p1653
I1
sS'trips'
p1654
I1
sS'gone'
p1655
I3
sS'fallows'
p1656
I1
sS'replacing'
p1657
I1
sS'archiectural'
p1658
I1
sS'videos'
p1659
I1
sS'certain'
p1660
I24
sS'record-making'
p1661
I1
sS'downplayed'
p1662
I2
sS'am'
p1663
I6
sS'al'
p1664
I2
sS'an'
p1665
I314
sS'impalpable'
p1666
I1
sS'as'
p1667
I587
sS'at'
p1668
I136
sS'file'
p1669
I4
sS'formulation'
p1670
I2
sS'inhibitions'
p1671
I1
sS'tremble'
p1672
I1
sS'itselfe'
p1673
I1
sS'film'
p1674
I7
sS'fill'
p1675
I1
sS'mathematic'
p1676
I1
sS'optimistically'
p1677
I1
sS'mandated'
p1678
I1
sS'hybrid'
p1679
I4
sS'departs'
p1680
I1
sS'field'
p1681
I24
sS'reassurance'
p1682
I1
sS'spatial'
p1683
I7
sS'remin'
p1684
I1
sS'distinguion'
p1685
I1
sS'offered'
p1686
I6
sS'presenting'
p1687
I2
sS'privatized'
p1688
I1
sS'vocabulary'
p1689
I1
sS'students'
p1690
I1
sS'temporalities'
p1691
I2
sS'contextually'
p1692
I1
sS'twho'
p1693
I1
sS'interface'
p1694
I4
sS'important'
p1695
I10
sS'accounts'
p1696
I1
sS'planners'
p1697
I1
sS'delineate'
p1698
I2
sS'intentional'
p1699
I5
sS'non-referential'
p1700
I1
sS'topo-nomology'
p1701
I1
sS'enrichment'
p1702
I1
sS'impossibility'
p1703
I8
sS'dramatic'
p1704
I5
sS'mass'
p1705
I3
sS'god'
p1706
I3
sS'maginalizes'
p1707
I1
sS'sensibility'
p1708
I4
sS'oral'
p1709
I1
sS'original'
p1710
I10
sS'represent'
p1711
I8
sS'sci'
p1712
I1
sS'consider'
p1713
I6
sS'extroverts'
p1714
I1
sS'bergsonist'
p1715
I1
sS'founded'
p1716
I4
sS'browsers'
p1717
I1
sS'restated'
p1718
I1
sS'invariably'
p1719
I3
sS'reasoning'
p1720
I1
sS'causes'
p1721
I2
sS'particles'
p1722
I1
sS'anarchitectural'
p1723
I1
sS're'
p1724
I3
sS'tv'
p1725
I2
sS'spirit'
p1726
I3
sS'to'
p1727
I1103
sS'nora'
p1728
I1
sS'seems'
p1729
I13
sS'th'
p1730
I2
sS'interprellation'
p1731
I1
sS'authorless'
p1732
I1
sS'conciousness'
p1733
I1
sS'adapt'
p1734
I2
sS'data-driven'
p1735
I2
sS'case'
p1736
I13
sS'returned'
p1737
I2
sS'predicament'
p1738
I1
sS'style'
p1739
I11
sS'plural'
p1740
I3
sS'resistance'
p1741
I10
sS'corollary'
p1742
I2
sS'interpreting'
p1743
I1
sS'fall'
p1744
I4
sS'subterranean'
p1745
I1
sS'difference'
p1746
I22
sS'iut'
p1747
I1
sS'condition'
p1748
I17
sS'neurological'
p1749
I1
sS'modernization'
p1750
I1
sS'totalizing'
p1751
I2
sS'nonsystematic'
p1752
I1
sS'triangulate'
p1753
I1
sS'rochberg'
p1754
I1
sS'large'
p1755
I17
sS'serialism'
p1756
I1
sS'choreographic'
p1757
I1
sS'small'
p1758
I3
sS'biological'
p1759
I1
sS'microsonic'
p1760
I1
sS'disused'
p1761
I1
sS'conceptualize'
p1762
I2
sS'portable'
p1763
I2
sS'situates'
p1764
I1
sS'past'
p1765
I8
sS'react'
p1766
I2
sS'zero'
p1767
I1
sS'titles'
p1768
I1
sS'timescales'
p1769
I1
sS'displays'
p1770
I1
sS'pass'
p1771
I3
sS'turning'
p1772
I2
sS'investment'
p1773
I2
sS'otoh'
p1774
I1
sS'stood'
p1775
I3
sS'instrumentos'
p1776
I2
sS'richard'
p1777
I1
sS'clock'
p1778
I1
sS'favor'
p1779
I4
sS'missaplication'
p1780
I1
sS'undecided'
p1781
I1
sS'scientists'
p1782
I2
sS'avenues'
p1783
I1
sS'method'
p1784
I6
sS'contrast'
p1785
I10
sS'movement'
p1786
I17
sS'revealing'
p1787
I1
sS'full'
p1788
I4
sS'installations'
p1789
I6
sS'hours'
p1790
I1
sS'beacon'
p1791
I1
sS'operating'
p1792
I4
sS'free'
p1793
I10
sS'surfed'
p1794
I1
sS'table'
p1795
I3
sS'hass'
p1796
I1
sS'search'
p1797
I7
sS'reshaped'
p1798
I1
sS'sugests'
p1799
I1
sS'reactionaries'
p1800
I1
sS'compliance'
p1801
I1
sS'experience'
p1802
I55
sS'sculpture'
p1803
I1
sS'significantly'
p1804
I1
sS'prior'
p1805
I2
sS'untruth'
p1806
I1
sS'uncharted'
p1807
I1
sS'social'
p1808
I88
sS'action'
p1809
I20
sS'homologous'
p1810
I1
sS'punched'
p1811
I1
sS'dehumanized'
p1812
I1
sS'struggle'
p1813
I2
sS'via'
p1814
I6
sS'shorthand'
p1815
I1
sS'enactment'
p1816
I1
sS'refuses'
p1817
I2
sS'preconfigured'
p1818
I2
sS'vir'
p1819
I1
sS'sanction'
p1820
I1
sS'apho'
p1821
I1
sS'establish'
p1822
I3
sS'select'
p1823
I1
sS'readily'
p1824
I1
sS'indistinction'
p1825
I1
sS'debunking'
p1826
I1
sS'archived'
p1827
I2
sS'eye'
p1828
I3
sS'counter-copernican'
p1829
I1
sS'spectrality'
p1830
I3
sS'distinct'
p1831
I3
sS'objectives'
p1832
I1
sS'two'
p1833
I30
sS'libet'
p1834
I1
sS'automata'
p1835
I10
sS'cultivation'
p1836
I1
sS'archives'
p1837
I8
sS'endowed'
p1838
I1
sS'aperture'
p1839
I1
sS'more'
p1840
I69
sS'exissting'
p1841
I1
sS'door'
p1842
I1
sS'duchamps'
p1843
I1
sS'extra-musical'
p1844
I1
sS'relevant'
p1845
I2
sS'canon'
p1846
I2
sS'company'
p1847
I1
sS'constructs'
p1848
I5
sS'possession'
p1849
I2
sS'nomad'
p1850
I1
sS'particular'
p1851
I22
sS'foundations'
p1852
I1
sS'normative'
p1853
I3
sS'negativity'
p1854
I4
sS'concelas'
p1855
I1
sS'evolves'
p1856
I3
sS'keeping'
p1857
I1
sS'calculability'
p1858
I1
sS'ingber'
p1859
I1
sS'tual'
p1860
I1
sS'science'
p1861
I18
sS'der'
p1862
I1
sS'classificatory'
p1863
I1
sS'control-panel'
p1864
I1
sS'remain'
p1865
I5
sS'nont'
p1866
I1
sS'del'
p1867
I2
sS'sent'
p1868
I2
sS'evolved'
p1869
I1
sS'learn'
p1870
I4
sS'abandon'
p1871
I1
sS'embrace'
p1872
I2
sS'male'
p1873
I1
sS'def'
p1874
I1
sS'oppositional'
p1875
I1
sS'beautiful'
p1876
I2
sS'purchases'
p1877
I1
sS'compare'
p1878
I2
sS'impacts'
p1879
I2
sS'stated'
p1880
I1
sS'galleries'
p1881
I2
sS'share'
p1882
I3
sS'accept'
p1883
I4
sS'states'
p1884
I7
sS'sphere'
p1885
I2
sS'numbers'
p1886
I7
sS'sense'
p1887
I82
sS'gemeinwesen'
p1888
I1
sS'sharp'
p1889
I1
sS'dress'
p1890
I1
sS'biography'
p1891
I1
sS'condemn'
p1892
I1
sS'information'
p1893
I69
sS'stil'
p1894
I1
sS'interconnect'
p1895
I1
sS'archive'
p1896
I44
sS'acts'
p1897
I14
sS'pressing'
p1898
I1
sS'shanken'
p1899
I1
sS'relinquishes'
p1900
I1
sS'maps'
p1901
I1
sS'sacred'
p1902
I5
sS'relinquished'
p1903
I1
sS'bit'
p1904
I1
sS'ensemble'
p1905
I4
sS'intended'
p1906
I3
sS'datafication'
p1907
I1
sS'brett'
p1908
I1
sS'mapping'
p1909
I9
sS'questioning'
p1910
I2
sS'referent'
p1911
I2
sS'plane'
p1912
I1
sS'blood'
p1913
I1
sS'waves'
p1914
I3
sS'participant'
p1915
I1
sS'ethics'
p1916
I2
sS'response'
p1917
I6
sS'insubstan'
p1918
I1
sS'resemble'
p1919
I1
sS'blanchot'
p1920
I13
sS'children'
p1921
I1
sS'fixed-point'
p1922
I1
sS'broadcasting'
p1923
I1
sS'responsibility'
p1924
I1
sS'fundamental'
p1925
I5
sS'media'
p1926
I102
sS'pleasure'
p1927
I10
sS'playing'
p1928
I4
sS'imploding'
p1929
I1
sS'trascendental'
p1930
I2
sS'environtment'
p1931
I1
sS'incessantly'
p1932
I1
sS'hypertext'
p1933
I3
sS'signi'
p1934
I2
sS'installed'
p1935
I1
sS'relationality'
p1936
I2
sS'attitude'
p1937
I4
sS'ceratin'
p1938
I1
sS'through'
p1939
I104
sS'signs'
p1940
I7
sS'gesture'
p1941
I3
sS'suffer'
p1942
I1
sS'its'
p1943
I248
sS'features'
p1944
I7
sS'mythologizing'
p1945
I1
sS'rapidly'
p1946
I1
sS'fissure'
p1947
I1
sS'termed'
p1948
I2
sS'baas'
p1949
I3
sS'poetic'
p1950
I3
sS'interiority'
p1951
I3
sS'late'
p1952
I10
sS'epoc'
p1953
I1
sS'epistemological'
p1954
I1
sS'posture'
p1955
I1
sS'interactively'
p1956
I1
sS'lookout'
p1957
I1
sS'avenir'
p1958
I1
sS'good'
p1959
I4
sS'seeking'
p1960
I1
sS'secondarily'
p1961
I1
sS'propose'
p1962
I1
sS'socially'
p1963
I5
sS'detour'
p1964
I1
sS'walls'
p1965
I7
sS'tre-au-monde'
p1966
I1
sS'idols'
p1967
I1
sS'speculate'
p1968
I1
sS'viewers'
p1969
I3
sS'paternity'
p1970
I1
sS'mystery'
p1971
I3
sS'easily'
p1972
I5
sS'implosive'
p1973
I1
sS'gestaltung'
p1974
I1
sS'essentialism'
p1975
I4
sS'always'
p1976
I56
sS'loosely'
p1977
I1
sS'temporarlity'
p1978
I1
sS'sovereignly'
p1979
I1
sS'plurality'
p1980
I6
sS'gender'
p1981
I30
sS'found'
p1982
I10
sS'repeating'
p1983
I3
sS'essentialist'
p1984
I2
sS'notes'
p1985
I4
sS'meshes'
p1986
I1
sS'reactions'
p1987
I1
sS'counter-globalisation'
p1988
I1
sS'everyone'
p1989
I1
sS'bends'
p1990
I1
sS'short'
p1991
I2
sS'house'
p1992
I5
sS'energy'
p1993
I4
sS'hard'
p1994
I2
sS'reduce'
p1995
I1
sS'idea'
p1996
I11
sS'engaging'
p1997
I1
sS'ontic-ontological'
p1998
I1
sS'phenomenolofgical'
p1999
I1
sS'connect'
p2000
I2
sS'operation'
p2001
I5
sS'thing'
p2002
I15
sS'orient'
p2003
I1
sS'reactionl'
p2004
I1
sS'really'
p2005
I2
sS'repressive'
p2006
I1
sS'lovers'
p2007
I12
sS'funding'
p2008
I2
sS'projected'
p2009
I4
sS'research'
p2010
I14
sS'misses'
p2011
I1
sS'vidfeo'
p2012
I1
sS'print'
p2013
I1
sS'occurs'
p2014
I5
sS'foreground'
p2015
I1
sS'belief'
p2016
I7
sS'semiotic'
p2017
I6
sS'commits'
p2018
I1
sS'mikhail'
p2019
I1
sS'illostrate'
p2020
I1
sS'included'
p2021
I2
sS'imaging'
p2022
I3
sS'members'
p2023
I4
sS'imagine'
p2024
I2
sS'entonces'
p2025
I1
sS'beginning'
p2026
I9
sS'definition'
p2027
I11
sS'interwove'
p2028
I1
sS'reinforces'
p2029
I1
sS'computers'
p2030
I9
sS'computer-produced'
p2031
I1
sS'consequences'
p2032
I4
sS'noted'
p2033
I3
sS'postulation'
p2034
I1
sS'sensations'
p2035
I2
sS'rogues'
p2036
I1
sS'actant'
p2037
I2
sS'contingency'
p2038
I1
sS'reinforced'
p2039
I1
sS'indebted'
p2040
I1
sS'major'
p2041
I4
sS'aisthetic'
p2042
I1
sS'rooted'
p2043
I1
sS'mimetic'
p2044
I2
sS'number'
p2045
I13
sS'prepersonal'
p2046
I1
sS'instances'
p2047
I2
sS'incorporeal'
p2048
I1
sS'done'
p2049
I6
sS'guar'
p2050
I1
sS'conditioning'
p2051
I1
sS'differ'
p2052
I2
sS'koj'
p2053
I4
sS'fuller'
p2054
I3
sS'introduction'
p2055
I1
sS'twenty'
p2056
I1
sS'threatening'
p2057
I1
sS'least'
p2058
I13
sS'artificaially'
p2059
I1
sS'militant'
p2060
I1
sS'contra'
p2061
I1
sS'omnipresent'
p2062
I1
sS'statement'
p2063
I3
sS'nished'
p2064
I1
sS'majority'
p2065
I1
sS'molecular'
p2066
I1
sS'relations'
p2067
I30
sS'motility'
p2068
I1
sS'habilidades'
p2069
I1
sS'elaboration'
p2070
I1
sS'lyotard'
p2071
I5
sS'relationship'
p2072
I27
sS'vantage'
p2073
I1
sS'mentality'
p2074
I1
sS'immediate'
p2075
I9
sS'part'
p2076
I17
sS'parsifal'
p2077
I1
sS'teeters'
p2078
I1
sS'believe'
p2079
I7
sS'endlessly'
p2080
I1
sS'diffusion'
p2081
I1
sS'supposes'
p2082
I1
sS'polarized'
p2083
I1
sS'critically'
p2084
I4
sS'largely'
p2085
I7
sS'vocal'
p2086
I1
sS'freud'
p2087
I12
sS'annihilation'
p2088
I1
sS'determined'
p2089
I5
sS'contrary'
p2090
I4
sS'supposed'
p2091
I4
sS'intertextual'
p2092
I1
sS'treated'
p2093
I1
sS'traumatism'
p2094
I1
sS'interactive'
p2095
I14
sS'pre-existing'
p2096
I1
sS'qustion'
p2097
I1
sS'ages'
p2098
I2
sS'smaller'
p2099
I2
sS'headings'
p2100
I1
sS'rupta'
p2101
I2
sS'domiciliation'
p2102
I2
sS'confirms'
p2103
I1
sS'orders'
p2104
I2
sS'ofclassificationwherethenameoftheauthor'
p2105
I1
sS'silvers'
p2106
I1
sS'tendeth'
p2107
I1
sS'destabilizing'
p2108
I1
sS'legibility'
p2109
I1
sS'self'
p2110
I48
sS'disbuted'
p2111
I1
sS'client'
p2112
I1
sS'also'
p2113
I67
sS'internal'
p2114
I5
sS'interconnection'
p2115
I1
sS'analogy'
p2116
I1
sS'envisage'
p2117
I1
sS'governerd'
p2118
I1
sS'play'
p2119
I14
sS'flute'
p2120
I1
sS'mead'
p2121
I1
sS'summons'
p2122
I1
sS'most'
p2123
I36
sS'plan'
p2124
I1
sS'significant'
p2125
I6
sS'services'
p2126
I1
sS'sine-tone'
p2127
I1
sS'extremely'
p2128
I1
sS'porate'
p2129
I1
sS'inconmensurable'
p2130
I1
sS'unavailable'
p2131
I1
sS'branching'
p2132
I2
sS'understands'
p2133
I1
sS'cause'
p2134
I3
sS'unequal'
p2135
I1
sS'sometimes'
p2136
I5
sS'cover'
p2137
I1
sS'tangible'
p2138
I1
sS'artistic'
p2139
I15
sS'whole-there'
p2140
I1
sS'directness'
p2141
I1
sS'totemic'
p2142
I1
sS'assisted'
p2143
I1
sS'nobility'
p2144
I1
sS'sector'
p2145
I1
sS'q2'
p2146
I1
sS'thomas'
p2147
I1
sS'particularly'
p2148
I2
sS'rebels'
p2149
I1
sS'swelling'
p2150
I1
sS'socio-political'
p2151
I1
sS'relation'
p2152
I23
sS'entity'
p2153
I8
sS'algorithms'
p2154
I7
sS'fine'
p2155
I2
sS'consciouslness'
p2156
I1
sS'impact'
p2157
I2
sS'access'
p2158
I14
sS'dividing'
p2159
I1
sS'commecial'
p2160
I1
sS'idiosyncratic'
p2161
I1
sS'nervous'
p2162
I3
sS'writes'
p2163
I6
sS'writer'
p2164
I2
sS'distributed'
p2165
I4
sS'waiting'
p2166
I1
sS'technicity'
p2167
I1
sS'factor'
p2168
I2
sS'indifference'
p2169
I2
sS'merged'
p2170
I2
sS'intractable'
p2171
I1
sS'permission'
p2172
I1
sS'dependent'
p2173
I5
sS'beams'
p2174
I1
sS'banned'
p2175
I1
sS'express'
p2176
I4
sS'synchronization'
p2177
I1
sS'gendered'
p2178
I4
sS'closely'
p2179
I1
sS'gradiva'
p2180
I1
sS'computerization'
p2181
I4
sS'resolve'
p2182
I1
sS'roles'
p2183
I3
sS'pleasures'
p2184
I1
sS'bytes'
p2185
I1
sS'compears'
p2186
I2
sS'totalities'
p2187
I1
sS'common'
p2188
I14
sS'obscure'
p2189
I2
sS'doublet'
p2190
I1
sS'locating'
p2191
I3
sS'set'
p2192
I22
sS'creator'
p2193
I1
sS'excavation'
p2194
I1
sS'omnidimensional'
p2195
I1
sS'instituted'
p2196
I5
sS'collectively'
p2197
I2
sS'see'
p2198
I18
sS'individual'
p2199
I40
sS'individualities'
p2200
I1
sS'surrendered'
p2201
I1
sS'influcence'
p2202
I1
sS'institutes'
p2203
I1
sS'materially'
p2204
I2
sS'outward'
p2205
I2
sS'analog'
p2206
I2
sS'sequences'
p2207
I2
sS'spirits'
p2208
I1
sS'movie'
p2209
I4
sS'currently'
p2210
I1
sS'fission'
p2211
I1
sS'hierarchization'
p2212
I1
sS'halves'
p2213
I1
sS'maachines'
p2214
I1
sS'interrelated'
p2215
I1
sS'myriad'
p2216
I1
sS'envelopes'
p2217
I1
sS'utilizamos'
p2218
I1
sS'distraught'
p2219
I1
sS'burned'
p2220
I1
sS'avoidance'
p2221
I1
sS'uses'
p2222
I9
sS'acutely'
p2223
I1
sS'knowing'
p2224
I1
sS'organizing'
p2225
I2
sS'enquiry'
p2226
I1
sS'responses'
p2227
I1
sS'complementary'
p2228
I1
sS'prescribe'
p2229
I1
sS'interfaces'
p2230
I4
sS'analogues'
p2231
I1
sS'immateriality'
p2232
I3
sS'renewed'
p2233
I1
sS'premise'
p2234
I2
sS'genders'
p2235
I2
sS'data--driven'
p2236
I1
sS'staging'
p2237
I2
sS'melodrama'
p2238
I1
sS'lightness'
p2239
I1
sS'alters'
p2240
I1
sS'endows'
p2241
I1
sS'enables'
p2242
I1
sS'last'
p2243
I5
sS'reverse'
p2244
I2
sS'influential'
p2245
I2
sS'teen-ager'
p2246
I1
sS'determines'
p2247
I6
sS'quarrelsome'
p2248
I1
sS'psychoanalisis'
p2249
I1
sS'being-separated'
p2250
I1
sS'connection'
p2251
I3
sS'technics'
p2252
I3
sS'm-configu'
p2253
I1
sS'whole'
p2254
I18
sS'agente'
p2255
I1
sS'bell'
p2256
I2
sS'simple'
p2257
I12
sS'domicile'
p2258
I1
sS'community'
p2259
I131
sS'underwrote'
p2260
I1
sS'agents'
p2261
I5
sS'adaptation'
p2262
I1
sS'tremor'
p2263
I1
sS'openness'
p2264
I1
sS'throughout'
p2265
I3
sS'underlay'
p2266
I1
sS'abstracting'
p2267
I1
sS'worthless'
p2268
I1
sS'co-designers'
p2269
I1
sS'publishing'
p2270
I1
sS'create'
p2271
I16
sS'creativity'
p2272
I3
sS'lets'
p2273
I1
sS'physiology'
p2274
I1
sS'secret'
p2275
I2
sS'fuses'
p2276
I1
sS'singularities'
p2277
I6
sS'doodles'
p2278
I1
sS'meeting'
p2279
I1
sS'slips'
p2280
I1
sS'modern'
p2281
I32
sS'samples'
p2282
I1
sS'top-down'
p2283
I1
sS'upstart'
p2284
I1
sS'great'
p2285
I6
sS'mine'
p2286
I1
sS'understand'
p2287
I10
sS'representative'
p2288
I1
sS'realms'
p2289
I2
sS'rupture'
p2290
I6
sS'patriarchy'
p2291
I3
sS'presses'
p2292
I1
sS'handling'
p2293
I1
sS'unify'
p2294
I1
sS'potentials'
p2295
I2
sS'talking'
p2296
I2
sS'expanded'
p2297
I4
sS'existance'
p2298
I1
sS'artitistic'
p2299
I1
sS'forgetting'
p2300
I2
sS'durkeimian'
p2301
I1
sS'replaced'
p2302
I2
sS'sociality'
p2303
I4
sS'spereads'
p2304
I1
sS'fun'
p2305
I1
sS'small-screen'
p2306
I1
sS'styles'
p2307
I1
sS'elucidation'
p2308
I1
sS'century'
p2309
I15
sS'mystic'
p2310
I1
sS'von'
p2311
I1
sS'binding'
p2312
I1
sS'all-important'
p2313
I1
sS'stations'
p2314
I1
sS'itself'
p2315
I169
sS'stubbornly'
p2316
I1
sS'producci'
p2317
I1
sS'methexic'
p2318
I1
sS'arenas'
p2319
I1
sS'uterization'
p2320
I1
sS'radicalization'
p2321
I1
sS'influencede'
p2322
I1
sS'read'
p2323
I6
sS'discourse'
p2324
I21
sS'virtually'
p2325
I3
sS'incantatory'
p2326
I1
sS'spe'
p2327
I1
sS'elevates'
p2328
I1
sS'day'
p2329
I1
sS'development'
p2330
I13
sS'originarily'
p2331
I1
sS'simondon'
p2332
I1
sS'keys'
p2333
I2
sS'resounds'
p2334
I6
sS'sys'
p2335
I1
sS'viewing'
p2336
I1
sS'levels'
p2337
I10
sS'purpose'
p2338
I2
sS'necessity'
p2339
I7
sS'resoncance'
p2340
I1
sS'aggregate'
p2341
I1
sS'realm'
p2342
I7
sS'fabrication'
p2343
I1
sS'recent'
p2344
I4
sS'oeuvre'
p2345
I1
sS'expend'
p2346
I1
sS'task'
p2347
I10
sS'howw'
p2348
I1
sS'suspicious'
p2349
I1
sS'midi'
p2350
I1
sS'concrete'
p2351
I2
sS'de'
p2352
I19
sS'concreta'
p2353
I1
sS'withdraw'
p2354
I1
sS'toil'
p2355
I1
sS'organization'
p2356
I7
sS'redistribution'
p2357
I1
sS'psychoanalytical'
p2358
I1
sS'comprise'
p2359
I2
sS'self-evolving'
p2360
I1
sS'uvrement'
p2361
I12
sS'shape'
p2362
I4
sS'hobbes'
p2363
I2
sS'alternative'
p2364
I5
sS'choreographers'
p2365
I1
sS'discipline'
p2366
I1
sS'superficial'
p2367
I1
sS'cut'
p2368
I2
sS'readers'
p2369
I2
sS'admission'
p2370
I2
sS'scales'
p2371
I3
sS'signals'
p2372
I1
sS'source'
p2373
I5
sS'deliberately'
p2374
I2
sS'cul'
p2375
I1
sS'formas'
p2376
I1
sS'bio'
p2377
I1
sS'demands'
p2378
I1
sS'big'
p2379
I4
sS'couple'
p2380
I1
sS'displace'
p2381
I1
sS'judgement'
p2382
I2
sS'matters'
p2383
I1
sS'suffering'
p2384
I1
sS'emergence'
p2385
I4
sS'projects'
p2386
I7
sS'formal'
p2387
I3
sS'sorting'
p2388
I4
sS'imposed'
p2389
I1
sS'cognitive'
p2390
I3
sS'follows'
p2391
I3
sS'archivization'
p2392
I6
sS'consensus'
p2393
I1
sS'communications'
p2394
I3
sS'individuals'
p2395
I6
sS'yields'
p2396
I1
sS'society-nature'
p2397
I1
sS'composites'
p2398
I1
sS'disorder'
p2399
I1
sS'alexandre'
p2400
I1
sS'unworking'
p2401
I10
sS'lenin'
p2402
I1
sS'participant-subject'
p2403
I2
sS'often'
p2404
I25
sS'collectors'
p2405
I2
sS'absolutely'
p2406
I2
sS'obliged'
p2407
I1
sS'althuser'
p2408
I1
sS'back'
p2409
I19
sS'examples'
p2410
I2
sS'sight'
p2411
I3
sS'mirror'
p2412
I1
sS'ourselves'
p2413
I9
sS'scale'
p2414
I10
sS'flux'
p2415
I6
sS'untranslatable'
p2416
I1
sS'psychologically'
p2417
I1
sS'novelty'
p2418
I3
sS'integration'
p2419
I4
sS'dematerialization'
p2420
I3
sS'linkages'
p2421
I2
sS'religion'
p2422
I2
sS'wheether'
p2423
I1
sS'behave'
p2424
I2
sS'cutler'
p2425
I1
sS'tye'
p2426
I1
sS'resolutely'
p2427
I1
sS'digitized'
p2428
I3
sS'be'
p2429
I280
sS'reexperiencing'
p2430
I1
sS'remembered'
p2431
I1
sS'dictates'
p2432
I1
sS'unavowable'
p2433
I1
sS'instantiation'
p2434
I2
sS'feelings'
p2435
I1
sS'criture'
p2436
I2
sS'dissonance'
p2437
I1
sS'nowhere'
p2438
I3
sS'output'
p2439
I3
sS'from'
p2440
I213
sS'relating'
p2441
I2
sS'dictated'
p2442
I2
sS'by'
p2443
I270
sS'goods'
p2444
I2
sS'multiple-source'
p2445
I1
sS'anything'
p2446
I8
sS'constraint'
p2447
I1
sS'modernity'
p2448
I6
sS'drama'
p2449
I2
sS'horro'
p2450
I1
sS'regular'
p2451
I1
sS'extensions'
p2452
I3
sS'boulez'
p2453
I4
sS'continually'
p2454
I3
sS'consequently'
p2455
I6
sS'purposees'
p2456
I1
sS'food-gatherer'
p2457
I1
sS'into'
p2458
I96
sS'integral'
p2459
I4
sS'locus'
p2460
I1
sS'appropriate'
p2461
I3
sS'selected'
p2462
I1
sS'primarily'
p2463
I6
sS'frames'
p2464
I2
sS'lesson'
p2465
I2
sS'reabsorbed'
p2466
I1
sS'risk'
p2467
I1
sS'interactivity'
p2468
I3
sS'totality'
p2469
I11
sS'translatability'
p2470
I1
sS'exposed'
p2471
I11
sS'depicted'
p2472
I2
sS'textual'
p2473
I4
sS'intermediaries'
p2474
I1
sS'harnesses'
p2475
I1
sS'logue'
p2476
I1
sS'forward'
p2477
I3
sS'translate'
p2478
I5
sS'subfields'
p2479
I2
sS'opens'
p2480
I15
sS'fax'
p2481
I1
sS'elsewhere'
p2482
I2
sS'poster'
p2483
I1
sS'juxtaposed'
p2484
I2
sS'mechanistic'
p2485
I1
sS'archaic'
p2486
I3
sS'subjectively'
p2487
I2
sS'link'
p2488
I2
sS'atom'
p2489
I1
sS'borborygmus'
p2490
I1
sS'line'
p2491
I7
sS'considerable'
p2492
I2
sS'directed'
p2493
I5
sS'positivist'
p2494
I1
sS'rejection'
p2495
I1
sS'crysstal'
p2496
I1
sS'blockage'
p2497
I1
sS'poststructuralist'
p2498
I3
sS'up'
p2499
I38
sS'us'
p2500
I38
sS'clips'
p2501
I1
sS'paired'
p2502
I1
sS'un'
p2503
I10
sS'exploration'
p2504
I4
sS'oversignifying'
p2505
I1
sS'cit'
p2506
I1
sS'continuously'
p2507
I3
sS'autonomous'
p2508
I3
sS'positivism'
p2509
I2
sS'storing'
p2510
I2
sS'units'
p2511
I4
sS'constant'
p2512
I1
sS'enjoins'
p2513
I1
sS'defined'
p2514
I11
sS'likewise'
p2515
I1
sS'congruence'
p2516
I1
sS'influence'
p2517
I5
sS'singly'
p2518
I1
sS'comming'
p2519
I1
sS'globally'
p2520
I1
sS'oikos'
p2521
I1
sS'single'
p2522
I17
sS'diverse'
p2523
I1
sS'alghtouhg'
p2524
I1
sS'self-positing'
p2525
I2
sS'nationalism'
p2526
I1
sS'defines'
p2527
I3
sS'phantom'
p2528
I2
sS'codes'
p2529
I2
sS'paradox'
p2530
I1
sS'non-dogmatic'
p2531
I1
sS'humanities'
p2532
I1
sS'cordporeal'
p2533
I1
sS'idleness'
p2534
I2
sS'composing'
p2535
I6
sS'transience'
p2536
I1
sS'tary'
p2537
I1
sS'priori'
p2538
I3
sS'actors'
p2539
I12
sS'becomes'
p2540
I27
sS'irreplaceable'
p2541
I1
sS'outsourced'
p2542
I1
sS'elements'
p2543
I29
sS'wrongly'
p2544
I1
sS'lend'
p2545
I1
sS'oblige'
p2546
I1
sS'dogmatic'
p2547
I1
sS'information-gatherer'
p2548
I1
sS'wissenshaften'
p2549
I1
sS'portay'
p2550
I1
sS'suppression'
p2551
I1
sS'sides'
p2552
I1
sS'ago'
p2553
I1
sS'habermas'
p2554
I1
sS'land'
p2555
I1
sS'implies'
p2556
I6
sS'algorithm'
p2557
I5
sS'trail'
p2558
I1
sS'humnaistic'
p2559
I1
sS'age'
p2560
I16
sS'wards'
p2561
I1
sS'responded'
p2562
I2
sS'implied'
p2563
I2
sS'came'
p2564
I5
sS'fresh'
p2565
I2
sS'having'
p2566
I7
sS'provided'
p2567
I6
sS'essay'
p2568
I11
sS'codd'
p2569
I1
sS'code'
p2570
I5
sS'illustrates'
p2571
I2
sS'scratch'
p2572
I1
sS'results'
p2573
I7
sS'existing'
p2574
I7
sS'illustrated'
p2575
I1
sS'nonauthorial'
p2576
I2
sS'centers'
p2577
I1
sS'seemed'
p2578
I2
sS'inventions'
p2579
I1
sS'compose'
p2580
I2
sS'breached'
p2581
I1
sS'shouldn'
p2582
I1
sS'concerned'
p2583
I1
sS'ects'
p2584
I1
sS'enjoined'
p2585
I1
sS'literary'
p2586
I12
sS'uniqueness'
p2587
I7
sS'breaches'
p2588
I2
sS'visitor'
p2589
I1
sS'decomposition'
p2590
I2
sS'pleasing'
p2591
I1
sS'resources'
p2592
I3
sS'simutaneously'
p2593
I1
sS'random'
p2594
I4
sS'implicitly'
p2595
I3
sS'continues'
p2596
I4
sS'account'
p2597
I12
sS'manipulated'
p2598
I3
sS'putting'
p2599
I1
sS'redefinition'
p2600
I1
sS'syntax'
p2601
I1
sS'continued'
p2602
I2
sS'claustrophobic'
p2603
I1
sS'categories'
p2604
I4
sS'arrange'
p2605
I1
sS'contemporaneity'
p2606
I1
sS'entire'
p2607
I5
sS'magic'
p2608
I3
sS'augment'
p2609
I1
sS'transmission'
p2610
I5
sS'experiencing'
p2611
I1
sS'tre'
p2612
I4
sS'tenuously'
p2613
I1
sS'certeau'
p2614
I1
sS'racy'
p2615
I1
sS'try'
p2616
I2
sS'race'
p2617
I1
sS'radio'
p2618
I3
sS'freed'
p2619
I2
sS'optics'
p2620
I1
sS'status-as-meaningful'
p2621
I1
sS'chiasmic'
p2622
I1
sS'ody'
p2623
I1
sS'transgressed'
p2624
I2
sS'polemics'
p2625
I1
sS'nonsecret'
p2626
I1
sS'imply'
p2627
I5
sS'video'
p2628
I10
sS'enclosed'
p2629
I1
sS'trackball'
p2630
I1
sS'incidentally'
p2631
I1
sS'dynamics'
p2632
I2
sS'carlo'
p2633
I1
sS'victor'
p2634
I1
sS'index'
p2635
I2
sS'decartes'
p2636
I1
sS'ciclo'
p2637
I1
sS'apparatus'
p2638
I16
sS'giving'
p2639
I1
sS'alienation'
p2640
I2
sS'conceptiual'
p2641
I1
sS'multimedia'
p2642
I11
sS'levitch'
p2643
I1
sS'renvoi'
p2644
I4
sS'expressed'
p2645
I1
sS'practices'
p2646
I30
sS'henceforth'
p2647
I2
sS'antor'
p2648
I1
sS'expresses'
p2649
I2
sS'body'
p2650
I63
sS'proliferation'
p2651
I1
sS'led'
p2652
I2
sS'praise'
p2653
I1
sS'ibid'
p2654
I1
sS'exchange'
p2655
I10
sS'gathered'
p2656
I1
sS'spacing'
p2657
I5
sS'gilles'
p2658
I1
sS'deleuze'
p2659
I11
sS'sino'
p2660
I3
sS'objects'
p2661
I19
sS'let'
p2662
I8
sS'lev'
p2663
I3
sS'others'
p2664
I25
sS'consideration'
p2665
I2
sS'invented'
p2666
I3
sS'frayage'
p2667
I1
sS'non-lineal'
p2668
I1
sS'extreme'
p2669
I2
sS'notably'
p2670
I2
sS'thatn'
p2671
I2
sS'engage'
p2672
I4
sS'technical'
p2673
I12
sS'involved'
p2674
I7
sS'typewriters'
p2675
I1
sS'contradiction'
p2676
I3
sS'resulting'
p2677
I3
sS'crystallize'
p2678
I1
sS'principally'
p2679
I1
sS'opinion'
p2680
I1
sS'makes'
p2681
I18
sS'delays'
p2682
I1
sS'involves'
p2683
I7
sS'composed'
p2684
I5
sS'truism'
p2685
I1
sS'viewpoint'
p2686
I1
sS'private'
p2687
I9
sS'participant-subjects'
p2688
I1
sS'limn'
p2689
I1
sS'names'
p2690
I4
sS'composer'
p2691
I12
sS'composes'
p2692
I1
sS'cooperative'
p2693
I2
sS'tools'
p2694
I4
sS'causal'
p2695
I2
sS'standing'
p2696
I1
sS'confidence'
p2697
I1
sS'post-1950s'
p2698
I1
sS'inspiration'
p2699
I2
sS'recalling'
p2700
I1
sS'physics'
p2701
I1
sS'next'
p2702
I1
sS'calculation'
p2703
I3
sS'doubt'
p2704
I5
sS'irrepressible'
p2705
I1
sS'face-to-face'
p2706
I1
sS'yardstick'
p2707
I1
sS'themselves'
p2708
I20
sS'sentation'
p2709
I1
sS'impotence'
p2710
I1
sS'normalizes'
p2711
I1
sS'supposedly'
p2712
I2
sS'on'
p2713
I168
sS'trait'
p2714
I1
sS'occurred'
p2715
I2
sS'bodily'
p2716
I8
sS'dis-location'
p2717
I1
sS'carrying'
p2718
I1
sS'normalized'
p2719
I2
sS'arranging'
p2720
I1
sS'iii'
p2721
I1
sS'high'
p2722
I5
sS'mid-1970s'
p2723
I1
sS'inclinations'
p2724
I1
sS'exploiit'
p2725
I1
sS'multtiple'
p2726
I1
sS'embarked'
p2727
I1
sS'this'
p2728
I285
sS'challenge'
p2729
I6
sS'clients'
p2730
I1
sS'insists'
p2731
I1
sS'pour'
p2732
I1
sS'reproduce'
p2733
I2
sS'ch1'
p2734
I1
sS'prompts'
p2735
I1
sS'tag'
p2736
I1
sS'obvious'
p2737
I3
sS'ch6'
p2738
I1
sS'narratives'
p2739
I9
sS'institute'
p2740
I4
sS'phon'
p2741
I2
sS'murmuring'
p2742
I1
sS'experiential'
p2743
I1
sS'theorems'
p2744
I1
sS'process'
p2745
I45
sS'ontologically'
p2746
I1
sS'purposes'
p2747
I5
sS'pieces'
p2748
I4
sS'depiction'
p2749
I1
sS'effectively'
p2750
I5
sS'proceso'
p2751
I2
sS'umberto'
p2752
I1
sS'employs'
p2753
I1
sS'onomatopoetic'
p2754
I1
sS'weaken'
p2755
I1
sS'educational'
p2756
I1
sS'varied'
p2757
I2
sS'democracy'
p2758
I3
sS'noises'
p2759
I1
sS'midsts'
p2760
I1
sS'holds'
p2761
I3
sS'negation'
p2762
I5
sS'formations'
p2763
I3
sS'delay'
p2764
I5
sS'reinstated'
p2765
I1
sS'animal'
p2766
I2
sS'affrmation'
p2767
I1
sS'intelligent'
p2768
I1
sS'rousseau'
p2769
I2
sS'sis'
p2770
I6
sS'buildings'
p2771
I1
sS'plato'
p2772
I3
sS'accorded'
p2773
I1
sS'singular'
p2774
I31
sS'philosophy'
p2775
I10
sS'tied'
p2776
I3
sS'fluid'
p2777
I5
sS'hussain'
p2778
I1
sS'ties'
p2779
I2
sS'beween'
p2780
I1
sS'solidarity'
p2781
I1
sS'efficiently'
p2782
I2
sS'realized'
p2783
I2
sS'induction'
p2784
I1
sS'locates'
p2785
I1
sS'coupling'
p2786
I1
sS'counter'
p2787
I2
sS'lines'
p2788
I2
sS'loudspeakers'
p2789
I1
sS'redundant'
p2790
I1
sS'element'
p2791
I4
sS'realizes'
p2792
I1
sS'asserts'
p2793
I2
sS'subsequently'
p2794
I1
sS'presuppose'
p2795
I1
sS'erasing'
p2796
I1
sS'boxing'
p2797
I1
sS'producer'
p2798
I4
sS'produces'
p2799
I14
sS'institutional'
p2800
I7
sS'move'
p2801
I2
sS'disarm'
p2802
I1
sS'produced'
p2803
I16
sS'musicification'
p2804
I1
sS'lands'
p2805
I1
sS'circumscribed'
p2806
I1
sS'fortunate'
p2807
I1
sS'operative'
p2808
I5
sS'factnew'
p2809
I1
sS'perfect'
p2810
I1
sS'bridges'
p2811
I1
sS'le'
p2812
I2
sS'recreating'
p2813
I1
sS'la'
p2814
I12
sS'chosen'
p2815
I1
sS'dr'
p2816
I1
sS'relativity'
p2817
I1
sS'labor'
p2818
I8
sS'mental'
p2819
I8
sS'idealities'
p2820
I1
sS'stances'
p2821
I1
sS'inarguably'
p2822
I1
sS'instruments'
p2823
I4
sS'latitude'
p2824
I1
sS'criminal'
p2825
I1
sS'spreading'
p2826
I1
sS'archival'
p2827
I5
sS'cusp'
p2828
I1
sS'designs'
p2829
I1
sS'insistent'
p2830
I2
sS'descendants'
p2831
I1
sS'unclear'
p2832
I1
sS'existences'
p2833
I1
sS'dan'
p2834
I1
sS'gure'
p2835
I1
sS'beads'
p2836
I1
sS'attributing'
p2837
I1
sS'cutting'
p2838
I1
sS'kiss'
p2839
I2
sS'being-with'
p2840
I1
sS'cage'
p2841
I4
sS'realize'
p2842
I1
sS'outre-sens'
p2843
I1
sS'remington'
p2844
I1
sS'warned'
p2845
I1
sS'identified'
p2846
I3
sS'sufficiently'
p2847
I2
sS'vibrations'
p2848
I1
sS'frayer'
p2849
I1
sS'truth'
p2850
I43
sS'electrically'
p2851
I1
sS'accompanied'
p2852
I4
sS'identifies'
p2853
I4
sS'sacer'
p2854
I1
sS'traces'
p2855
I8
sS'experienced'
p2856
I6
sS'reproducing'
p2857
I4
sS'enigmatic'
p2858
I1
sS'activate'
p2859
I5
sS'doing'
p2860
I9
sS'proliferating'
p2861
I1
sS'periodisation'
p2862
I1
sS'not-a'
p2863
I1
sS'society'
p2864
I32
sS'frequency'
p2865
I2
sS'static'
p2866
I4
sS'weave'
p2867
I1
sS'sion'
p2868
I1
sS'banal'
p2869
I1
sS'programmer'
p2870
I1
sS'sexual'
p2871
I1
sS'wander'
p2872
I1
sS'witness'
p2873
I2
sS'mediates'
p2874
I1
sS'matrix'
p2875
I1
sS'borderline'
p2876
I1
sS'continuity'
p2877
I3
sS'announces'
p2878
I1
sS'defend'
p2879
I1
sS'valve'
p2880
I1
sS'wholly'
p2881
I4
sS'mediated'
p2882
I2
sS'adaptive'
p2883
I1
sS'queaities'
p2884
I1
sS'critiquing'
p2885
I1
sS'approached'
p2886
I2
sS'interactions'
p2887
I5
sS'macrotemporal'
p2888
I1
sS'tempo'
p2889
I1
sS'fthe'
p2890
I1
sS'approaches'
p2891
I2
sS'surely'
p2892
I2
sS'collection'
p2893
I7
sS'regulatory'
p2894
I1
sS'ofer'
p2895
I1
sS'modem'
p2896
I1
sS'interaction'
p2897
I23
sS'olander'
p2898
I1
sS'spill'
p2899
I1
sS'could'
p2900
I19
sS'compulsive'
p2901
I1
sS'coulb'
p2902
I1
sS'corporales'
p2903
I1
sS'david'
p2904
I2
sS'length'
p2905
I2
sS'sonoros'
p2906
I1
sS'mortal'
p2907
I2
sS'retain'
p2908
I2
sS'repeats'
p2909
I1
sS'facilitate'
p2910
I3
sS'deprives'
p2911
I1
sS'degree'
p2912
I3
sS'fait'
p2913
I1
sS'platonic'
p2914
I1
sS'reflexive'
p2915
I1
sS'backward-looking'
p2916
I1
sS'scene'
p2917
I4
sS'owned'
p2918
I1
sS'strategic'
p2919
I1
sS'occurrences'
p2920
I2
sS'emptirically-grounded'
p2921
I1
sS'owner'
p2922
I1
sS'reached'
p2923
I1
sS'blows'
p2924
I1
sS'decode'
p2925
I3
sS'ancient'
p2926
I1
sS'bracket'
p2927
I1
sS'fascinating'
p2928
I1
sS'erelations'
p2929
I1
sS'los'
p2930
I13
sS'festival'
p2931
I1
sS'technologies27'
p2932
I1
sS'habit'
p2933
I5
sS'system'
p2934
I51
sS'establishments'
p2935
I1
sS'positing'
p2936
I2
sS'self-distancing'
p2937
I1
sS'complemen'
p2938
I1
sS'pervasive'
p2939
I1
sS'ogy'
p2940
I1
sS'eavesdrop'
p2941
I1
sS'explanation'
p2942
I2
sS'negro'
p2943
I1
sS'emergent'
p2944
I11
sS'environmental'
p2945
I1
sS'too'
p2946
I11
sS'cultures'
p2947
I2
sS'democratization'
p2948
I1
sS'elite'
p2949
I1
sS'steel'
p2950
I1
sS'patriarchic'
p2951
I2
sS'roulette'
p2952
I1
sS'listeners'
p2953
I2
sS'orchestrated'
p2954
I1
sS'reproduction'
p2955
I8
sS'embody'
p2956
I3
sS'abolished'
p2957
I1
sS'anthropologist'
p2958
I1
sS'collecting'
p2959
I3
sS'deende'
p2960
I1
sS'false'
p2961
I4
sS'neutralize'
p2962
I1
sS'viewer'
p2963
I13
sS'inicialmente'
p2964
I1
sS'correspond'
p2965
I1
sS'landless'
p2966
I1
sS'nonhumans'
p2967
I4
sS'defending'
p2968
I1
sS'have'
p2969
I121
sS'dictate'
p2970
I1
sS'throat'
p2971
I1
sS'trembling'
p2972
I1
sS'apparently'
p2973
I2
sS'clearly'
p2974
I5
sS'viewed'
p2975
I5
sS'granules'
p2976
I1
sS'interpellation'
p2977
I1
sS'energeia'
p2978
I1
sS'documents'
p2979
I3
sS'minimally'
p2980
I1
sS'microcompositional'
p2981
I1
sS'mechanism'
p2982
I3
sS'provokes'
p2983
I1
sS'mix'
p2984
I2
sS'concerns'
p2985
I4
sS'assumtion'
p2986
I1
sS'assummes'
p2987
I1
sS'accuracy'
p2988
I1
sS'worldwide'
p2989
I1
sS'posits'
p2990
I1
sS'regard'
p2991
I6
sS'disavowal'
p2992
I1
sS'signifying'
p2993
I7
sS'rearrange'
p2994
I1
sS'useful'
p2995
I4
sS'authorial'
p2996
I3
sS'eight'
p2997
I1
sS'device'
p2998
I7
sS'capacity'
p2999
I4
sS'sophisticated'
p3000
I1
sS'so-called'
p3001
I4
sS'reduces'
p3002
I2
sS'transitivity'
p3003
I1
sS'gather'
p3004
I1
sS'metaphysical'
p3005
I1
sS'disease'
p3006
I1
sS'face'
p3007
I6
sS'valuing'
p3008
I1
sS'denouncing'
p3009
I1
sS'discursive'
p3010
I9
sS'artificially'
p3011
I2
sS'mechanical'
p3012
I3
sS'painting'
p3013
I4
sS'fact'
p3014
I17
sS'commu'
p3015
I1
sS'selection'
p3016
I2
sS'laing'
p3017
I3
sS'text'
p3018
I26
sS'supported'
p3019
I3
sS'hamlet'
p3020
I1
sS'visualized'
p3021
I1
sS'bring'
p3022
I3
sS'connective'
p3023
I1
sS'rough'
p3024
I2
sS'paternal'
p3025
I1
sS'brink'
p3026
I1
sS'decade'
p3027
I1
sS'principal'
p3028
I1
sS'inspiring'
p3029
I1
sS'provisional'
p3030
I1
sS'knowledge'
p3031
I18
sS'jay'
p3032
I1
sS'bildung'
p3033
I2
sS'mute'
p3034
I2
sS'dialogism'
p3035
I4
sS'pre-opening'
p3036
I1
sS'prolong'
p3037
I1
sS'entities'
p3038
I9
sS'spontaneity'
p3039
I2
sS'tape'
p3040
I4
sS'ambiguity'
p3041
I1
sS'incompletion'
p3042
I2
sS'communist'
p3043
I2
sS'hope'
p3044
I3
sS'equilibrium'
p3045
I2
sS'meant'
p3046
I2
sS'possibbilities'
p3047
I1
sS'insight'
p3048
I5
sS'listened'
p3049
I5
sS'means'
p3050
I33
sS'familiar'
p3051
I2
sS'photography'
p3052
I5
sS'simplest'
p3053
I1
sS'prohibition'
p3054
I1
sS'listener'
p3055
I4
sS'expres'
p3056
I1
sS'familial'
p3057
I1
sS'disssymetrical'
p3058
I1
sS'shaping'
p3059
I4
sS'areas'
p3060
I2
sS'symbols'
p3061
I4
sS'aes'
p3062
I1
sS'grapsed'
p3063
I1
sS'substrate'
p3064
I2
sS'organ'
p3065
I1
sS'granular'
p3066
I1
sS'approach'
p3067
I19
sS'coalescence'
p3068
I1
sS'stuff'
p3069
I1
sS'mraurizio'
p3070
I1
sS'barest'
p3071
I2
sS'pertains'
p3072
I1
sS'looks'
p3073
I1
sS'conform'
p3074
I1
sS'temporarily'
p3075
I2
sS'constructing'
p3076
I1
sS'exists'
p3077
I8
sS'frame'
p3078
I8
sS'correlations'
p3079
I1
sS'respect'
p3080
I3
sS'intensity'
p3081
I6
sS'checks'
p3082
I2
sS'light-matter'
p3083
I1
sS'configures'
p3084
I1
sS'phases'
p3085
I1
sS'wire'
p3086
I2
sS'imposition'
p3087
I2
sS'nuclear'
p3088
I1
sS'incorporating'
p3089
I5
sS'identification'
p3090
I4
sS'difficulties'
p3091
I1
sS'injustice'
p3092
I1
sS'legitimize'
p3093
I1
sS'thougth'
p3094
I1
sS'progress'
p3095
I3
sS'boundary'
p3096
I6
sS'globalisation'
p3097
I7
sS'ends'
p3098
I7
sS'explosive'
p3099
I1
sS'interchangeably'
p3100
I1
sS'phatic'
p3101
I2
sS'second-order'
p3102
I1
sS'deliver'
p3103
I1
sS'however'
p3104
I27
sS'reproduces'
p3105
I1
sS'reappears'
p3106
I1
sS'configuration'
p3107
I2
sS'pragmatics'
p3108
I1
sS'sexed'
p3109
I1
sS'figured'
p3110
I1
sS'instant'
p3111
I10
sS'freely'
p3112
I4
sS'taking'
p3113
I5
sS'equal'
p3114
I1
sS'etc'
p3115
I4
sS'figures'
p3116
I5
sS'attributes'
p3117
I3
sS'swallow'
p3118
I1
sS'double-meaning'
p3119
I1
sS'kinds'
p3120
I8
sS'invites'
p3121
I2
sS'otherwise'
p3122
I5
sS'ch'
p3123
I1
sS'censorship'
p3124
I1
sS'conclude'
p3125
I1
sS'indexical'
p3126
I1
sS'cf'
p3127
I2
sS'reconstitution'
p3128
I1
sS'artowkr'
p3129
I1
sS'coercive'
p3130
I1
sS'beyond-meaning'
p3131
I2
sS'nostalgic'
p3132
I1
sS'eliding'
p3133
I1
sS'outsides'
p3134
I1
sS'exhalation'
p3135
I1
sS'adjective'
p3136
I1
sS'trajectory'
p3137
I5
sS'copies'
p3138
I1
sS'genetic'
p3139
I1
sS'gaze'
p3140
I2
sS'cassell'
p3141
I1
sS'electr'
p3142
I2
sS'indicators'
p3143
I1
sS'utilizing'
p3144
I2
sS'oxymoronic'
p3145
I1
sS'krisis'
p3146
I1
sS'arises'
p3147
I2
sS'finishes'
p3148
I1
sS'coherence'
p3149
I1
sS'goddess'
p3150
I1
sS'finished'
p3151
I1
sS'tense'
p3152
I2
sS'rhythms'
p3153
I2
sS'fellow'
p3154
I1
sS'divisions'
p3155
I1
sS'atmospheric'
p3156
I1
sS'imagination'
p3157
I1
sS'verticaal'
p3158
I1
sS'examine'
p3159
I5
sS'value'
p3160
I8
sS'specifically'
p3161
I2
sS'frameworks'
p3162
I1
sS'self-representation'
p3163
I1
sS'expiration'
p3164
I1
sS'promoted'
p3165
I2
sS'intoareal'
p3166
I1
sS'fielding'
p3167
I1
sS'late-twentieth-century'
p3168
I1
sS'aesthetics'
p3169
I33
sS'concerted'
p3170
I1
sS've'
p3171
I4
sS'incor'
p3172
I1
sS'almost'
p3173
I6
sS'reiteration'
p3174
I1
sS'wchich'
p3175
I2
sS'site'
p3176
I3
sS'hardware'
p3177
I2
sS'counterweight'
p3178
I1
sS'vr'
p3179
I2
sS'vs'
p3180
I1
sS'raison'
p3181
I1
sS'politics'
p3182
I16
sS'prose'
p3183
I1
sS'descriptive'
p3184
I1
sS'sequentially'
p3185
I1
sS'scientistic'
p3186
I4
sS'exorcising'
p3187
I1
sS'players'
p3188
I3
sS'solely'
p3189
I1
sS're-collector'
p3190
I1
sS'primaritly'
p3191
I1
sS'tinuously'
p3192
I1
sS'shuttle'
p3193
I1
sS'terrorism'
p3194
I1
sS'finite'
p3195
I4
sS'self-generatiinig'
p3196
I1
sS'disseminating'
p3197
I1
sS'long-distance'
p3198
I1
sS'practice'
p3199
I11
sS'raymond'
p3200
I1
sS'again'
p3201
I7
sS'preplanned'
p3202
I1
sS'javanese'
p3203
I1
sS'upon'
p3204
I13
sS'architectures'
p3205
I1
sS'distinction'
p3206
I11
sS'infinite'
p3207
I15
sS'identity'
p3208
I20
sS'pleasantly'
p3209
I1
sS'recourse'
p3210
I1
sS'center'
p3211
I6
sS'neural'
p3212
I5
sS'nevertheless'
p3213
I3
sS'weapon'
p3214
I1
sS'thought'
p3215
I29
sS'unceasingly'
p3216
I1
sS'command'
p3217
I1
sS'sets'
p3218
I11
sS'dymaxion'
p3219
I1
sS'audio'
p3220
I4
sS'arising'
p3221
I1
sS'latest'
p3222
I1
sS'enunciation'
p3223
I1
sS'sonata'
p3224
I2
sS'less'
p3225
I15
sS'moments'
p3226
I4
sS'compel'
p3227
I1
sS'arch-sonorous'
p3228
I1
sS'domestic'
p3229
I2
sS'necessitate'
p3230
I1
sS'satellites'
p3231
I1
sS'underlying'
p3232
I2
sS'insisting'
p3233
I1
sS'widen'
p3234
I1
sS'paul'
p3235
I1
sS'materialization'
p3236
I2
sS'wether'
p3237
I3
sS'web'
p3238
I9
sS'well-worn'
p3239
I1
sS'trajetory'
p3240
I1
sS'passively'
p3241
I1
sS'cybernetic'
p3242
I1
sS'transparent'
p3243
I1
sS'arrest'
p3244
I1
sS'add'
p3245
I3
sS'neoliberal'
p3246
I1
sS'combine'
p3247
I1
sS'exempt'
p3248
I1
sS'adn'
p3249
I2
sS'grow'
p3250
I1
sS'successor'
p3251
I1
sS'geneous'
p3252
I1
sS'ought'
p3253
I4
sS'characteristically'
p3254
I1
sS'resolved'
p3255
I2
sS'increased'
p3256
I1
sS'government'
p3257
I2
sS'famously'
p3258
I1
sS'increases'
p3259
I2
sS'five'
p3260
I2
sS'desk'
p3261
I1
sS'insert'
p3262
I1
sS'displaced'
p3263
I4
sS'like'
p3264
I37
sS'inviting'
p3265
I1
sS'poetics'
p3266
I1
sS'qualitative'
p3267
I1
sS'workd'
p3268
I1
sS'edit'
p3269
I1
sS'flickering'
p3270
I1
sS'practicioner'
p3271
I1
sS'become'
p3272
I32
sS'works'
p3273
I23
sS'mid-1990s'
p3274
I2
sS'audible'
p3275
I2
sS'replacement'
p3276
I1
sS'accessible'
p3277
I1
sS'consignation'
p3278
I5
sS'ecriture'
p3279
I1
sS'composiciones'
p3280
I1
sS'authority'
p3281
I9
sS'immortal'
p3282
I1
sS'constituents'
p3283
I1
sS'include'
p3284
I4
sS'choosing'
p3285
I1
sS'proper'
p3286
I4
sS'novelist'
p3287
I1
sS'recognition'
p3288
I4
sS'oneself'
p3289
I1
sS'happens'
p3290
I6
sS'contested'
p3291
I1
sS'obsessed'
p3292
I2
sS'cognition'
p3293
I4
sS'literally'
p3294
I7
sS'avoid'
p3295
I2
sS'separate'
p3296
I4
sS'doer'
p3297
I1
sS'does'
p3298
I69
sS'passion'
p3299
I10
sS'contact'
p3300
I3
sS'ontogenetic'
p3301
I1
sS'happend'
p3302
I1
sS'mnemic'
p3303
I1
sS'noise'
p3304
I5
sS'schedule'
p3305
I1
sS'selecting'
p3306
I1
sS'pressure'
p3307
I1
sS'although'
p3308
I3
sS'imaginary'
p3309
I8
sS'sysetems'
p3310
I1
sS'stage'
p3311
I5
sS'gained'
p3312
I1
sS'about'
p3313
I51
sS'actual'
p3314
I11
sS'puts'
p3315
I2
sS'chronometric'
p3316
I1
sS'certainty'
p3317
I3
sS'introduces'
p3318
I1
sS'angeles'
p3319
I1
sS'introducen'
p3320
I1
sS'insufficient'
p3321
I1
sS'things-in'
p3322
I1
sS'software'
p3323
I20
sS'subset'
p3324
I2
sS'rendered'
p3325
I5
sS'letters'
p3326
I1
sS'twenty-first'
p3327
I1
sS'preexisting'
p3328
I1
sS'stratification'
p3329
I1
sS'commitment'
p3330
I3
sS'priviledged'
p3331
I1
sS'chronic'
p3332
I1
sS'syntagmatic'
p3333
I2
sS'interdependence'
p3334
I1
sS'rosler'
p3335
I1
sS'manifests'
p3336
I1
sS'mere'
p3337
I5
sS'terminated'
p3338
I1
sS'archivable'
p3339
I2
sS'lost'
p3340
I16
sS'inasmuch'
p3341
I4
sS'trigger'
p3342
I3
sS'utopian'
p3343
I4
sS'troubling'
p3344
I1
sS'naturally'
p3345
I2
sS'rhythmic'
p3346
I1
sS'ivory'
p3347
I1
sS'disengaged'
p3348
I1
sS'insures'
p3349
I1
sS'thematic'
p3350
I1
sS'teleological'
p3351
I1
sS'but'
p3352
I186
sS'caitlin'
p3353
I1
sS'delivery'
p3354
I1
sS'reminds'
p3355
I1
sS'repeated'
p3356
I4
sS'construction'
p3357
I10
sS'disrupts'
p3358
I1
sS'convergence'
p3359
I1
sS'editing'
p3360
I3
sS'entered'
p3361
I1
sS'count'
p3362
I1
sS'fragmentation'
p3363
I3
sS'places'
p3364
I6
sS'wish'
p3365
I1
sS'official'
p3366
I3
sS'variations'
p3367
I3
sS'triumphant'
p3368
I1
sS'plications'
p3369
I1
sS'placed'
p3370
I3
sS'books'
p3371
I1
sS'monument'
p3372
I1
sS'distribution'
p3373
I7
sS'informational'
p3374
I1
sS'interplay'
p3375
I2
sS'bearing'
p3376
I4
sS'penetrating'
p3377
I1
sS'rightly'
p3378
I1
sS'paint'
p3379
I1
sS'int'
p3380
I1
sS'recognize'
p3381
I3
sS'dure'
p3382
I1
sS'dissemination'
p3383
I3
sS'our'
p3384
I63
sS'ing'
p3385
I3
sS'identities'
p3386
I3
sS'compared'
p3387
I1
sS'sicos'
p3388
I2
sS'nonetheless'
p3389
I4
sS'being-for'
p3390
I1
sS'virtual'
p3391
I19
sS'haraway'
p3392
I3
sS'merleau-ponty'
p3393
I4
sS'details'
p3394
I1
sS'suppress'
p3395
I1
sS'illusion'
p3396
I7
sS'outlines'
p3397
I2
sS'falsity'
p3398
I2
sS'semblance'
p3399
I1
sS'colonized'
p3400
I1
sS'oppression'
p3401
I3
sS'co-appears'
p3402
I1
sS'intransitive'
p3403
I1
sS'chance'
p3404
I4
sS'fundamentally'
p3405
I6
sS'ghost'
p3406
I1
sS'authoritativeness'
p3407
I1
sS'zvonar'
p3408
I1
sS'cstasy'
p3409
I1
sS'prevalent'
p3410
I1
sS'newspaper-edged'
p3411
I1
sS'resolution'
p3412
I2
sS'processed'
p3413
I1
sS'rule'
p3414
I2
sS'compete'
p3415
I2
sS'ineparable'
p3416
I1
sS'res'
p3417
I2
sS'limited'
p3418
I9
sS'legacies'
p3419
I1
sS'acceleration'
p3420
I4
sS'udity'
p3421
I1
sS'curatorial'
p3422
I1
sS'desirable'
p3423
I1
sS'monte'
p3424
I1
sS'controversial'
p3425
I1
sS'oldest'
p3426
I1
sS'saved'
p3427
I2
sS'assembled'
p3428
I1
sS'tomorrows'
p3429
I1
sS'relationships'
p3430
I11
sS'onur'
p3431
I1
sS'founder'
p3432
I1
sS'communaute'
p3433
I1
sS'contact-barriers'
p3434
I1
sS'edward'
p3435
I1
sS'whatsoever'
p3436
I1
sS'under'
p3437
I19
sS'ontological'
p3438
I12
sS'worth'
p3439
I3
sS'summarizes'
p3440
I1
sS'insofar'
p3441
I6
sS'amorous'
p3442
I1
sS'dominate'
p3443
I4
sS'tudor'
p3444
I2
sS'rise'
p3445
I7
sS'meassured'
p3446
I1
sS'every'
p3447
I16
sS'gratification'
p3448
I1
sS'techno-science'
p3449
I1
sS'nonmodern'
p3450
I2
sS'encounter'
p3451
I4
sS'school'
p3452
I3
sS'progression'
p3453
I3
sS'pinch'
p3454
I1
sS'conceive'
p3455
I3
sS'sonorities'
p3456
I1
sS'apprehension'
p3457
I1
sS'systemic'
p3458
I1
sS'despairing'
p3459
I1
sS'particularities'
p3460
I2
sS'abolishing'
p3461
I1
sS'triumph'
p3462
I1
sS'degeneracy'
p3463
I1
sS'enjoy'
p3464
I1
sS'forget'
p3465
I1
sS'tagion'
p3466
I1
sS'pragmatic'
p3467
I1
sS'disciplines'
p3468
I1
sS'construed'
p3469
I1
sS'phones'
p3470
I1
sS'direct'
p3471
I9
sS'approximation'
p3472
I2
sS'exchangeable'
p3473
I1
sS'reified'
p3474
I1
sS'expressive'
p3475
I4
sS'machines'
p3476
I8
sS'established'
p3477
I12
sS'christ'
p3478
I1
sS'incompatible'
p3479
I1
sS'decisions'
p3480
I3
sS'sound-object'
p3481
I1
sS'supplied'
p3482
I1
sS'sung'
p3483
I1
sS'renaissance'
p3484
I2
sS'organisma'
p3485
I1
sS'hegelian'
p3486
I6
sS'above'
p3487
I8
sS'blur'
p3488
I1
sS'consisting'
p3489
I2
sS'seeks'
p3490
I4
sS'told'
p3491
I1
sS'ascent'
p3492
I1
sS'give'
p3493
I12
sS'simultaneously'
p3494
I6
sS'notions'
p3495
I6
sS'spatialization'
p3496
I1
sS'conversion'
p3497
I1
sS'entertains'
p3498
I1
sS're-utilize'
p3499
I1
sS'protection'
p3500
I2
sS'pursuit'
p3501
I1
sS'bourdieu'
p3502
I1
sS'represented'
p3503
I11
sS'path'
p3504
I5
sS'multuplicity'
p3505
I1
sS'celebration'
p3506
I1
sS'stresses'
p3507
I1
sS'connoisseur'
p3508
I1
sS'items'
p3509
I2
sS'study'
p3510
I8
sS'changed'
p3511
I9
sS'affective'
p3512
I3
sS'neurones'
p3513
I5
sS'museums'
p3514
I4
sS'cntact'
p3515
I1
sS'calculators'
p3516
I1
sS'que'
p3517
I12
sS'settled'
p3518
I1
sS'punishment'
p3519
I3
sS'signifies'
p3520
I3
sS'mutual'
p3521
I3
sS'spawn'
p3522
I1
sS'prints'
p3523
I2
sS'hetero'
p3524
I1
sS'secure'
p3525
I1
sS'discontinuous'
p3526
I1
sS'plenum'
p3527
I1
sS'perpetuated'
p3528
I1
sS'highly'
p3529
I3
sS'visible'
p3530
I15
sS'conjunction'
p3531
I3
sS'archaeological'
p3532
I1
sS'socioeconomic'
p3533
I2
sS'perpetuates'
p3534
I1
sS'total'
p3535
I7
sS'experimentation'
p3536
I1
sS'plot'
p3537
I3
sS'charge'
p3538
I1
sS'stabilized'
p3539
I1
sS'would'
p3540
I50
sS'arrangedd'
p3541
I1
sS'ephemerality'
p3542
I2
sS'negative'
p3543
I8
sS'distributing'
p3544
I1
sS'discourses'
p3545
I1
sS'mediate'
p3546
I1
sS'program'
p3547
I12
sS'nonresistant'
p3548
I1
sS'ravishing'
p3549
I1
sS'separated'
p3550
I2
sS'interpenetrate'
p3551
I1
sS'aware'
p3552
I3
sS'temporallizations'
p3553
I1
sS'separates'
p3554
I4
sS'continual'
p3555
I2
sS'iv'
p3556
I1
sS'striving'
p3557
I1
sS'blocking'
p3558
I1
sS'harnessing'
p3559
I1
sS'must'
p3560
I47
sS'me'
p3561
I18
sS'claims'
p3562
I3
sS'word'
p3563
I19
sS'player'
p3564
I3
sS'work'
p3565
I134
sS'theories'
p3566
I5
sS'cation'
p3567
I2
sS'era'
p3568
I5
sS'transparency'
p3569
I3
sS'henry'
p3570
I4
sS'already'
p3571
I31
sS'tethered'
p3572
I1
sS'my'
p3573
I28
sS'inscription'
p3574
I8
sS'elided'
p3575
I1
sS'conforted'
p3576
I1
sS'indicated'
p3577
I2
sS'telematic'
p3578
I1
sS'resounding'
p3579
I4
sS'centered'
p3580
I1
sS'indicates'
p3581
I2
sS'authorities'
p3582
I1
sS'ual'
p3583
I1
sS'punctuality'
p3584
I1
sS'impregnation'
p3585
I1
sS'keep'
p3586
I2
sS'unordered'
p3587
I1
sS'fcace'
p3588
I1
sS'ceremony'
p3589
I1
sS'areality'
p3590
I2
sS'end'
p3591
I29
sS'provide'
p3592
I10
sS'eno'
p3593
I2
sS'far'
p3594
I11
sS'writers'
p3595
I3
sS'disappear'
p3596
I2
sS'ordinary'
p3597
I1
sS'kaja'
p3598
I1
sS'resignation'
p3599
I1
sS'classifying'
p3600
I1
sS'fever'
p3601
I2
sS'bosanquet'
p3602
I1
sS'transforming'
p3603
I6
sS'turing'
p3604
I1
sS'coined'
p3605
I1
sS'after'
p3606
I20
sS'millimeter'
p3607
I1
sS'hence'
p3608
I10
sS'self-enclosed'
p3609
I1
sS'law'
p3610
I14
sS'meaningful'
p3611
I8
sS'parallel'
p3612
I1
sS'las'
p3613
I4
sS'systematization'
p3614
I1
sS'occurence'
p3615
I1
sS'acknowledged'
p3616
I3
sS'greek'
p3617
I1
sS'complexity'
p3618
I9
sS'nascent'
p3619
I1
sS'upside'
p3620
I1
sS'ultimate'
p3621
I4
sS'titative'
p3622
I1
sS'correlation'
p3623
I2
sS'acknowledges'
p3624
I2
sS'order'
p3625
I42
sS'dialogic'
p3626
I8
sS'interpretation'
p3627
I12
sS'over'
p3628
I26
sS'univocal'
p3629
I1
sS'throughtout'
p3630
I1
sS'sublated'
p3631
I2
sS'visual-textual'
p3632
I1
sS'thesis'
p3633
I4
sS'nomenologie'
p3634
I1
sS'bahnung'
p3635
I2
sS'somewhere'
p3636
I1
sS'highlights'
p3637
I1
sS'inficidual'
p3638
I1
sS'expectations'
p3639
I2
sS'comprehend'
p3640
I1
sS'destroyed'
p3641
I1
sS'production'
p3642
I29
sS'potentially'
p3643
I1
sS'writins'
p3644
I1
sS'harmony'
p3645
I1
sS'theo'
p3646
I1
sS'then'
p3647
I27
sS'them'
p3648
I43
sS'justine'
p3649
I1
sS'affected'
p3650
I2
sS'nication'
p3651
I1
sS'triennials'
p3652
I1
sS'break'
p3653
I3
sS'penetration'
p3654
I2
sS'reenactment'
p3655
I1
sS'they'
p3656
I79
sS'philoso'
p3657
I1
sS'tourism'
p3658
I1
sS'ther'
p3659
I1
sS'bank'
p3660
I1
sS'suicide'
p3661
I2
sS'germanic'
p3662
I1
sS'one-to-one'
p3663
I1
sS'prostheses'
p3664
I1
sS'abstarct'
p3665
I1
sS'classified'
p3666
I2
sS'presupposition'
p3667
I3
sS'stimulus'
p3668
I1
sS'victory'
p3669
I3
sS'bolter'
p3670
I1
sS'each'
p3671
I52
sS'feeds'
p3672
I1
sS'entitled'
p3673
I1
sS'decreasing'
p3674
I2
sS'vacillates'
p3675
I1
sS'sonsign'
p3676
I1
sS'voyager'
p3677
I1
sS'schemes'
p3678
I1
sS'evolve'
p3679
I1
sS'laying'
p3680
I2
sS'impede'
p3681
I1
sS'autre'
p3682
I2
sS'effervescent'
p3683
I1
sS'combining'
p3684
I2
sS'artaud'
p3685
I2
sS'understoo'
p3686
I1
sS'punchcards'
p3687
I1
sS'juxtaposition'
p3688
I1
sS'network'
p3689
I19
sS'driving'
p3690
I3
sS'objectified'
p3691
I1
sS'psychic'
p3692
I5
sS'forty'
p3693
I1
sS'collaborated'
p3694
I1
sS'asumptions'
p3695
I1
sS'nite'
p3696
I3
sS'sciousnesses'
p3697
I1
sS'interconnectedness'
p3698
I1
sS'forth'
p3699
I7
sS'objectifies'
p3700
I1
sS'de-connection'
p3701
I1
sS'patriarchive'
p3702
I1
sS'perception'
p3703
I8
sS'barrier'
p3704
I1
sS'veto'
p3705
I1
sS'propone'
p3706
I1
sS'standard'
p3707
I1
sS'admits'
p3708
I1
sS'techno'
p3709
I1
sS'formation'
p3710
I3
sS'counterparts'
p3711
I1
sS'ungraspable'
p3712
I1
sS'wanted'
p3713
I2
sS'parricide'
p3714
I1
sS'created'
p3715
I15
sS'ritual'
p3716
I1
sS'dispersal'
p3717
I1
sS'myth-making'
p3718
I1
sS'creates'
p3719
I4
sS'bears'
p3720
I3
sS'oppose'
p3721
I1
sS'virtuality'
p3722
I2
sS'incorporated'
p3723
I2
sS'unknown'
p3724
I1
sS'onto'
p3725
I5
sS'truthfulness'
p3726
I1
sS'industrial'
p3727
I4
sS'attractions'
p3728
I1
sS'suchas'
p3729
I1
sS'coding'
p3730
I1
sS'primary'
p3731
I10
sS'rank'
p3732
I1
sS'hearing'
p3733
I6
sS'fantasy'
p3734
I2
sS'philosophical'
p3735
I7
sS'withinvisual'
p3736
I1
sS'another'
p3737
I34
sS'implicated'
p3738
I1
sS'datamine'
p3739
I1
sS'electronic'
p3740
I17
sS'illustrate'
p3741
I1
sS'cartesian'
p3742
I1
sS'revival'
p3743
I1
sS'rejects'
p3744
I4
sS'top'
p3745
I4
sS'vibrate'
p3746
I1
sS'fiction'
p3747
I2
sS'rates'
p3748
I3
sS'observations'
p3749
I1
sS'john'
p3750
I2
sS'efface'
p3751
I2
sS'thereness'
p3752
I1
sS'murder'
p3753
I1
sS'emblem'
p3754
I2
sS'happily'
p3755
I1
sS'soviet'
p3756
I2
sS'tool'
p3757
I7
sS'diversified'
p3758
I1
sS'serve'
p3759
I6
sS'took'
p3760
I4
sS'repeatable'
p3761
I1
sS'western'
p3762
I6
sS'collectives'
p3763
I3
sS'bebe'
p3764
I1
sS'mcluhan'
p3765
I1
sS'disenchangment'
p3766
I1
sS'expeience'
p3767
I1
sS'scenes'
p3768
I2
sS'periodising'
p3769
I2
sS'godard'
p3770
I2
sS'vocalizing'
p3771
I1
sS'composici'
p3772
I1
sS'classes'
p3773
I2
sS'expo'
p3774
I1
sS'historical'
p3775
I21
sS'rationalization'
p3776
I1
sS'powers'
p3777
I3
sS'preceeding'
p3778
I1
sS'expe'
p3779
I1
sS'perspective'
p3780
I9
sS'bridge'
p3781
I1
sS'navigate'
p3782
I3
sS'nothign'
p3783
I1
sS'return'
p3784
I11
sS'raw'
p3785
I2
sS'manner'
p3786
I3
sS'further'
p3787
I9
sS'socia'
p3788
I1
sS'contents'
p3789
I1
sS'relatively'
p3790
I8
sS'forced'
p3791
I2
sS'unorganised'
p3792
I1
sS'strength'
p3793
I2
sS'gies'
p3794
I2
sS'relayed'
p3795
I1
sS'latter'
p3796
I10
sS'isolated'
p3797
I3
sS'thorough'
p3798
I1
sS'indexes'
p3799
I1
sS'fraternizes'
p3800
I1
sS'subjects'
p3801
I8
sS'forces'
p3802
I7
sS'academy'
p3803
I1
sS'extirpation'
p3804
I1
sS'isolates'
p3805
I1
sS'nytyak'
p3806
I1
sS'completed'
p3807
I3
sS'residue'
p3808
I1
sS'deconstructive'
p3809
I2
sS'transistor'
p3810
I1
sS'mathews'
p3811
I1
sS'though'
p3812
I7
sS'transfiguration'
p3813
I1
sS'exercised'
p3814
I1
sS'extending'
p3815
I2
sS'immediacy'
p3816
I1
sS'germany'
p3817
I1
sS'culminates'
p3818
I1
sS'scripts'
p3819
I1
sS'phase'
p3820
I2
sS'grave'
p3821
I1
sS'paradigm'
p3822
I16
sS'treats'
p3823
I3
sS'unitariness'
p3824
I1
sS'desubjectivization'
p3825
I1
sS'calculated'
p3826
I1
sS'brackets'
p3827
I1
sS'metal'
p3828
I1
sS'possesses'
p3829
I1
sS'mementoes'
p3830
I1
sS'subjectivities'
p3831
I1
sS'accounted'
p3832
I1
sS'sun'
p3833
I1
sS'quantifying'
p3834
I1
sS'notion'
p3835
I18
sS'reserve'
p3836
I2
sS'enwebbed'
p3837
I1
sS'manipulation'
p3838
I4
sS'effraction'
p3839
I4
sS'prescription'
p3840
I2
sS'colors'
p3841
I1
sS'assembling'
p3842
I1
sS'instroduction'
p3843
I1
sS'solutions'
p3844
I1
sS'ejecutantes'
p3845
I1
sS'tacitly'
p3846
I1
sS'wrung'
p3847
I1
sS'earth'
p3848
I1
sS'analogue'
p3849
I2
sS'make'
p3850
I14
sS'bricolage'
p3851
I1
sS'resemblance'
p3852
I1
sS'consciousness'
p3853
I25
sS'implementation'
p3854
I1
sS'situations'
p3855
I1
sS'guidance'
p3856
I1
sS'sentence'
p3857
I4
sS'layman'
p3858
I1
sS'reverses'
p3859
I1
sS'commandment'
p3860
I2
sS'adequate'
p3861
I3
sS'predecessor'
p3862
I1
sS'do'
p3863
I29
sS'erasure'
p3864
I4
sS'archongic'
p3865
I1
sS'terrifying'
p3866
I1
sS'di'
p3867
I3
sS'commodity'
p3868
I2
sS'composition-needs'
p3869
I1
sS'scalable'
p3870
I1
sS'leisure'
p3871
I5
sS'degradation'
p3872
I1
sS'haunted'
p3873
I3
sS'twentieth-century'
p3874
I2
sS'despite'
p3875
I3
sS'report'
p3876
I1
sS'vividly'
p3877
I1
sS'subject-as-poi'
p3878
I1
sS'runs'
p3879
I2
sS'domesticity'
p3880
I1
sS'rependent'
p3881
I1
sS'countries'
p3882
I1
sS'rowing'
p3883
I2
sS'humanism'
p3884
I4
sS'public'
p3885
I20
sS'accompanuy'
p3886
I1
sS'enfranchised'
p3887
I1
sS'humanist'
p3888
I1
sS'shots'
p3889
I1
sS'analytical'
p3890
I2
sS'identify'
p3891
I1
sS'implication'
p3892
I1
sS'automatic'
p3893
I6
sS'secretary'
p3894
I1
sS'fullness'
p3895
I2
sS'observer'
p3896
I9
sS'observes'
p3897
I1
sS'observed'
p3898
I3
sS'analytics'
p3899
I1
sS'projections'
p3900
I2
sS'christian'
p3901
I1
sS'signifiance'
p3902
I1
sS'techniques'
p3903
I5
sS'accede'
p3904
I1
sS'draws'
p3905
I1
sS'away'
p3906
I8
sS'therr-dimensional'
p3907
I1
sS'yet'
p3908
I25
sS'fthose'
p3909
I1
sS'ailed'
p3910
I1
sS'drawn'
p3911
I2
sS'designin'
p3912
I1
sS'encounters'
p3913
I4
sS'materiales'
p3914
I1
sS'we'
p3915
I140
sS'dematerialised'
p3916
I1
sS'terms'
p3917
I15
sS'amplitude'
p3918
I1
sS'institution'
p3919
I8
sS'adding'
p3920
I2
sS'confusion'
p3921
I1
sS'weak'
p3922
I1
sS'metaphisics'
p3923
I1
sS'rime'
p3924
I1
sS'spectacles'
p3925
I1
sS'wear'
p3926
I1
sS'unfold'
p3927
I3
sS'news'
p3928
I1
sS'packages'
p3929
I1
sS'iterative'
p3930
I1
sS'linkage'
p3931
I1
sS'ranges'
p3932
I1
sS'essentially'
p3933
I11
sS'providing'
p3934
I1
sS'psychologists'
p3935
I1
sS'excrement'
p3936
I1
sS'renders'
p3937
I3
sS'needle-threading'
p3938
I1
sS'participating'
p3939
I2
sS'didactic'
p3940
I1
sS'games'
p3941
I3
sS'exceeds'
p3942
I1
sS'homesickness'
p3943
I1
sS'planet'
p3944
I1
sS'com'
p3945
I3
sS'neoliberalism'
p3946
I1
sS'negotiation'
p3947
I1
sS'tone'
p3948
I3
sS'prepared'
p3949
I1
sS'm-configurations'
p3950
I1
sS'character'
p3951
I4
sS'vast'
p3952
I1
sS'comprehension'
p3953
I1
sS'interrelations'
p3954
I2
sS'wider'
p3955
I4
sS'subscribing'
p3956
I1
sS'telecommunications'
p3957
I4
sS'speak'
p3958
I12
sS'engines'
p3959
I1
sS'friedrich'
p3960
I1
sS'observing'
p3961
I2
sS'faltering'
p3962
I1
sS'been'
p3963
I58
sS'drafting'
p3964
I1
sS'universals'
p3965
I1
sS'charisma'
p3966
I1
sS'communion'
p3967
I8
sS'expected'
p3968
I2
sS'flexible'
p3969
I4
sS'containers'
p3970
I2
sS'fleeting'
p3971
I1
sS'tecnolog'
p3972
I3
sS'concerning'
p3973
I4
sS'technological'
p3974
I23
sS'foucault'
p3975
I13
sS'coherent'
p3976
I5
sS'immersive'
p3977
I5
sS'postmodern'
p3978
I7
sS'applied'
p3979
I2
sS'save'
p3980
I2
sS'leveling'
p3981
I1
sS'publicly'
p3982
I1
sS'self-generating'
p3983
I1
sS're-sounding'
p3984
I1
sS'air'
p3985
I1
sS'aim'
p3986
I7
sS'leaves'
p3987
I1
sS'applies'
p3988
I1
sS'aid'
p3989
I3
sS'cracked'
p3990
I1
sS'property'
p3991
I7
sS'document'
p3992
I2
sS'significations'
p3993
I4
sS'stretching'
p3994
I1
sS'schaeffer'
p3995
I1
sS'hypermediacy'
p3996
I1
sS'phenomenological'
p3997
I8
sS'arttificial'
p3998
I1
sS'curiosuty'
p3999
I1
sS'globalizzation'
p4000
I1
sS'tions'
p4001
I1
sS'reconceive'
p4002
I1
sS'tissue'
p4003
I2
sS'foging'
p4004
I1
sS'exterior'
p4005
I3
sS'comparative'
p4006
I1
sS'indetermination'
p4007
I1
sS'interacts'
p4008
I1
sS'dispues'
p4009
I1
sS'confirmed'
p4010
I1
sS'perform'
p4011
I3
sS'suggest'
p4012
I1
sS'metaphorical'
p4013
I2
sS'linked'
p4014
I5
sS'enlightenment'
p4015
I17
sS'complex'
p4016
I23
sS'usurping'
p4017
I1
sS'tendentially'
p4018
I2
sS'hierarchies'
p4019
I2
sS'several'
p4020
I4
sS'disciplining'
p4021
I1
sS'inscribing'
p4022
I5
sS'independent'
p4023
I7
sS'ponctualise'
p4024
I1
sS'cinema2'
p4025
I1
sS'schiller'
p4026
I1
sS'unbearable'
p4027
I2
sS'swell'
p4028
I2
sS'effectuated'
p4029
I1
sS'theodora'
p4030
I1
sS'evil'
p4031
I2
sS'hand'
p4032
I15
sS'depict'
p4033
I1
sS'producers'
p4034
I3
sS'being-present'
p4035
I1
sS'buckminster'
p4036
I1
sS'cateogry'
p4037
I1
sS'insisted'
p4038
I1
sS'normalization'
p4039
I1
sS'attention-grabbing'
p4040
I1
sS'prescribed'
p4041
I2
sS'literatures'
p4042
I1
sS'immaterial'
p4043
I7
sS'tains'
p4044
I1
sS'boxes'
p4045
I1
sS'deal'
p4046
I3
sS'ocean'
p4047
I3
sS'many-to-many'
p4048
I1
sS'prescribes'
p4049
I2
sS'mother'
p4050
I1
sS'the'
p4051
I3277
sS'operandi'
p4052
I2
sS'musical'
p4053
I33
sS'tha'
p4054
I1
sS'unified'
p4055
I4
sS'stringent'
p4056
I1
sS'background'
p4057
I2
sS'proposed'
p4058
I2
sS'brenner'
p4059
I1
sS'gods'
p4060
I1
sS'expanding'
p4061
I1
sS'de-territorialized'
p4062
I1
sS'grusin'
p4063
I1
sS'thanks'
p4064
I2
sS'breaching'
p4065
I5
sS'followed'
p4066
I2
sS'rhythmically'
p4067
I1
sS'visualization'
p4068
I9
sS'dissenters'
p4069
I1
sS'vibration'
p4070
I1
sS'interprete'
p4071
I1
sS'wunderkammer'
p4072
I1
sS'passive'
p4073
I2
sS'belongs'
p4074
I3
sS'transformed'
p4075
I3
sS'advanced'
p4076
I4
sS'requiring'
p4077
I1
sS'evidenced'
p4078
I1
sS'interprets'
p4079
I1
sS'spatio-temporal'
p4080
I1
sS'gave'
p4081
I2
sS'master-narratives'
p4082
I1
sS'matics'
p4083
I3
sS'which'
p4084
I317
sS'dignity'
p4085
I3
sS'advances'
p4086
I2
sS'breaks'
p4087
I4
sS'fusion'
p4088
I5
sS'donal'
p4089
I1
sS'judge'
p4090
I1
sS'authorship'
p4091
I12
sS'designers'
p4092
I1
sS'retreat'
p4093
I2
sS'apart'
p4094
I3
sS'appearing'
p4095
I4
sS'gift'
p4096
I1
sS'texts'
p4097
I8
sS'reifications'
p4098
I1
sS'singn'
p4099
I1
sS'dishonest'
p4100
I1
sS'temporally'
p4101
I2
sS'lapsed'
p4102
I1
sS'specific'
p4103
I13
sS'informative'
p4104
I1
sS'transform'
p4105
I2
sS'magnetically'
p4106
I1
sS'night'
p4107
I2
sS'valence'
p4108
I1
sS'lifeworld'
p4109
I1
sS'stringing'
p4110
I1
sS'envision'
p4111
I1
sS'self-relation'
p4112
I1
sS'outsidethis'
p4113
I1
sS'husserlian'
p4114
I1
sS'born'
p4115
I3
sS'election'
p4116
I1
sS'displeasure'
p4117
I1
sS'escape'
p4118
I3
sS'critique'
p4119
I7
sS'indirect'
p4120
I2
sS'embodied'
p4121
I11
sS'stylization'
p4122
I1
sS'phenomenal'
p4123
I4
sS'non-instrumental'
p4124
I1
sS'centre'
p4125
I4
sS'comments'
p4126
I1
sS'ubiquity'
p4127
I2
sS'everything'
p4128
I19
sS'imiage'
p4129
I1
sS'denied'
p4130
I1
sS'self-consciousness'
p4131
I3
sS'subordination'
p4132
I1
sS'participation'
p4133
I7
sS'ordains'
p4134
I1
sS'core'
p4135
I3
sS'algorithmic'
p4136
I5
sS'elucidate'
p4137
I1
sS'arbitrary'
p4138
I1
sS'disappeared'
p4139
I2
sS'pher'
p4140
I1
sS'restructuring'
p4141
I1
sS'coexisted'
p4142
I1
sS'substitution'
p4143
I2
sS'inflections'
p4144
I1
sS'properties'
p4145
I5
sS'lights'
p4146
I1
sS'proceed'
p4147
I1
sS'chapter'
p4148
I2
sS'limitation'
p4149
I3
sS'collectivity'
p4150
I1
sS'theirs'
p4151
I1
sS'moriendo'
p4152
I1
sS'constituting'
p4153
I3
sS'horizon'
p4154
I5
sS'perceives'
p4155
I1
sS'primitive'
p4156
I2
sS'effusion'
p4157
I1
sS'float'
p4158
I1
sS'bound'
p4159
I3
sS'naturalized'
p4160
I2
sS'balances'
p4161
I2
sS'inclusive'
p4162
I4
sS'dreyfus'
p4163
I1
sS'formidable'
p4164
I1
sS'balanced'
p4165
I2
sS'producible'
p4166
I1
sS'existed'
p4167
I1
sS'rely'
p4168
I4
sS'compression'
p4169
I1
sS'panofsky'
p4170
I1
sS'topologies'
p4171
I1
sS'available'
p4172
I7
sS'sovereign'
p4173
I4
sS'why'
p4174
I9
sS'forgetfulness'
p4175
I1
sS'way'
p4176
I60
sS'liquidates'
p4177
I1
sS'rela'
p4178
I2
sS'empathy'
p4179
I3
sS'was'
p4180
I66
sS'war'
p4181
I4
sS'sinification'
p4182
I1
sS'synthesis'
p4183
I5
sS'became'
p4184
I11
sS'head'
p4185
I1
sS'medium'
p4186
I20
sS'tensegrity'
p4187
I2
sS'postmodernism'
p4188
I2
sS'fahat'
p4189
I1
sS'becoming'
p4190
I8
sS'polyphonic'
p4191
I1
sS'deny'
p4192
I1
sS'vitality'
p4193
I1
sS'sogtware'
p4194
I1
sS'illuminating'
p4195
I1
sS'trum'
p4196
I1
sS'encoded'
p4197
I2
sS'removed'
p4198
I3
sS'true'
p4199
I9
sS'phonatory'
p4200
I1
sS'physicality'
p4201
I2
sS'responding'
p4202
I1
sS'enlighened'
p4203
I1
sS'versions'
p4204
I2
sS'compositional'
p4205
I4
sS'crystal'
p4206
I1
sS'resea'
p4207
I1
sS'emotional'
p4208
I1
sS'fulfills'
p4209
I1
sS'inscroll'
p4210
I1
sS'digression'
p4211
I1
sS'computing'
p4212
I7
sS'nudity'
p4213
I2
sS'abstract'
p4214
I9
sS'evidence'
p4215
I1
sS'open-endedness'
p4216
I1
sS'promised'
p4217
I1
sS'acclaimed'
p4218
I1
sS'simulations'
p4219
I1
sS'distributions'
p4220
I3
sS'animate'
p4221
I1
sS'physical'
p4222
I17
sS'radically'
p4223
I2
sS'no'
p4224
I128
sS'whereas'
p4225
I5
sS'stake'
p4226
I2
sS'nd'
p4227
I1
sS'reality'
p4228
I21
sS'tim'
p4229
I1
sS'interested'
p4230
I2
sS'holding'
p4231
I1
sS'test'
p4232
I1
sS'entailments'
p4233
I1
sS'techn'
p4234
I1
sS'tic'
p4235
I1
sS'node'
p4236
I1
sS'politi'
p4237
I1
sS'aobut'
p4238
I1
sS'preceding'
p4239
I1
sS'databases'
p4240
I18
sS'improvisation'
p4241
I1
sS'opsigns'
p4242
I4
sS'do-it-yourself'
p4243
I1
sS'regime'
p4244
I4
sS'undisturbed'
p4245
I1
sS'normally'
p4246
I1
sS'modules'
p4247
I1
sS'necessitates'
p4248
I1
sS'governed'
p4249
I2
sS'reception'
p4250
I6
sS'exhausts'
p4251
I1
sS'archontic'
p4252
I10
sS'serious'
p4253
I3
sS'necessitated'
p4254
I1
sS'backward'
p4255
I1
sS'stick'
p4256
I1
sS'neighbors'
p4257
I1
sS'concept'
p4258
I24
sS'broke'
p4259
I1
sS'impression'
p4260
I6
sS'dance'
p4261
I2
sS'global'
p4262
I14
sS'datum'
p4263
I3
sS'fabricated'
p4264
I1
sS'leads'
p4265
I2
sS'roundtable'
p4266
I1
sS'computation'
p4267
I5
sS'remarkably'
p4268
I1
sS'layers'
p4269
I1
sS'certainly'
p4270
I3
sS'inverse'
p4271
I1
sS'zone'
p4272
I1
sS'inflects'
p4273
I1
sS'promote'
p4274
I1
sS'passage'
p4275
I8
sS'environment'
p4276
I11
sS'graps'
p4277
I3
sS'permanently'
p4278
I1
sS'rhythm'
p4279
I4
sS'division'
p4280
I6
sS'predicate'
p4281
I1
sS'embodies'
p4282
I2
sS'advantage'
p4283
I2
sS'frequencies'
p4284
I1
sS'none'
p4285
I3
sS'seemingly'
p4286
I3
sS'entries'
p4287
I1
sS'emphasized'
p4288
I1
sS'partitions'
p4289
I1
sS'oftentimes'
p4290
I1
sS'perceived'
p4291
I7
sS'presented'
p4292
I1
sS'altering'
p4293
I2
sS'irreducible'
p4294
I4
sS'fragile'
p4295
I1
sS'standards'
p4296
I1
sS'discrete'
p4297
I10
sS'irreducibly'
p4298
I3
sS'nonspeech'
p4299
I1
sS'recall'
p4300
I2
sS'analysos'
p4301
I1
sS'accumulation'
p4302
I4
sS'added'
p4303
I5
sS'hte'
p4304
I1
sS'revolution'
p4305
I5
sS'says'
p4306
I6
sS'regained'
p4307
I2
sS'cosm'
p4308
I1
sS'repetitive'
p4309
I1
sS'discover'
p4310
I3
sS'immanentist'
p4311
I1
sS'thinker'
p4312
I1
sS'control-sharing'
p4313
I1
sS'forging'
p4314
I2
sS'penetrated'
p4315
I2
sS'spectral'
p4316
I8
sS'appear'
p4317
I6
sS'deluded'
p4318
I1
sS'categorizing'
p4319
I1
sS'shares'
p4320
I1
sS'uniform'
p4321
I1
sS'derrida'
p4322
I4
sS'switch'
p4323
I1
sS'paragraph'
p4324
I1
sS'goes'
p4325
I3
sS'shared'
p4326
I12
sS'appeal'
p4327
I1
sS'scripted'
p4328
I2
sS'supporting'
p4329
I1
sS'dwqell'
p4330
I1
sS'explosion'
p4331
I1
sS'water'
p4332
I2
sS'communism'
p4333
I9
sS'witch'
p4334
I1
sS'twentieth'
p4335
I4
sS'groups'
p4336
I5
sS'strategies'
p4337
I6
sS'appears'
p4338
I10
sS'change'
p4339
I20
sS'denigrated'
p4340
I1
sS'rethink'
p4341
I2
sS'vibrating'
p4342
I2
sS'splendor'
p4343
I1
sS'arkheion'
p4344
I1
sS'usually'
p4345
I5
sS'resonance'
p4346
I27
sS'navigation'
p4347
I3
sS'sedimented'
p4348
I1
sS'emerge'
p4349
I9
sS'regardless'
p4350
I2
sS'perspectives'
p4351
I3
sS'interrelating'
p4352
I1
sS'voyous'
p4353
I1
sS'marked'
p4354
I1
sS'subjectivity'
p4355
I12
sS'illumination'
p4356
I1
sS'should'
p4357
I15
sS'crisis'
p4358
I6
sS'market'
p4359
I2
sS'synchronized'
p4360
I1
sS'prove'
p4361
I1
sS'bahn'
p4362
I1
sS'live'
p4363
I4
sS'andy'
p4364
I1
sS'memory'
p4365
I25
sS'associated'
p4366
I7
sS'intolerable'
p4367
I1
sS'today'
p4368
I12
sS'plug'
p4369
I1
sS'finitude'
p4370
I18
sS'dramatizing'
p4371
I1
sS'crire'
p4372
I1
sS'clicking'
p4373
I1
sS'flying'
p4374
I1
sS'pensar'
p4375
I1
sS'symptomatic'
p4376
I1
sS'equivalents'
p4377
I1
sS'slinky'
p4378
I1
sS'coevolution'
p4379
I1
sS'misreading'
p4380
I1
sS'envelops'
p4381
I2
sS'inhabit'
p4382
I3
sS'natuer'
p4383
I1
sS'organizations'
p4384
I2
sS'graphic'
p4385
I1
sS'ibm'
p4386
I5
sS'thousands'
p4387
I1
sS'modified'
p4388
I1
sS'combe'
p4389
I1
sS'ircam'
p4390
I6
sS'non-repeating'
p4391
I1
sS'can'
p4392
I138
sS'cal'
p4393
I2
sS'performative'
p4394
I12
sS'attain'
p4395
I1
sS'heart'
p4396
I8
sS'mcclary'
p4397
I1
sS'subcategories'
p4398
I1
sS'hears'
p4399
I1
sS'nexus'
p4400
I1
sS'attribute'
p4401
I1
sS'mold'
p4402
I1
sS'barron'
p4403
I1
sS'heard'
p4404
I2
sS'posing'
p4405
I1
sS'purity'
p4406
I1
sS'phrase'
p4407
I1
sS'chic'
p4408
I1
sS'intelligible'
p4409
I1
sS'occur'
p4410
I4
sS'chie'
p4411
I1
sS'productive'
p4412
I5
sS'dispositions'
p4413
I1
sS'reliving'
p4414
I1
sS'discussion'
p4415
I2
sS'spreads'
p4416
I3
sS'innumerable'
p4417
I1
sS'service-based'
p4418
I1
sS'nihilism'
p4419
I1
sS'write'
p4420
I2
sS'vital'
p4421
I1
sS'criterion'
p4422
I2
sS'fourth'
p4423
I3
sS'speaks'
p4424
I3
sS'dominance'
p4425
I1
sS'economy'
p4426
I11
sS'product'
p4427
I7
sS'informa'
p4428
I1
sS'irrational'
p4429
I5
sS'sequenza'
p4430
I1
sS'practive'
p4431
I4
sS'quantified'
p4432
I1
sS'sacrifice'
p4433
I1
sS'eighty'
p4434
I1
sS'needs'
p4435
I6
sS'grounds'
p4436
I1
sS'fascism'
p4437
I1
sS'produce'
p4438
I16
sS'deviates'
p4439
I1
sS'representations'
p4440
I6
sS'weberian'
p4441
I1
sS'goal'
p4442
I8
sS'classroom'
p4443
I1
sS'branches'
p4444
I1
sS'remember'
p4445
I5
sS'succeeded'
p4446
I1
sS'explicit'
p4447
I8
sS'purification'
p4448
I2
sS'inform'
p4449
I1
sS'gap'
p4450
I2
sS'ones'
p4451
I9
sS'progressively'
p4452
I2
sS'ecstasy'
p4453
I9
sS'deconstruction'
p4454
I3
sS'representation'
p4455
I22
sS'michel'
p4456
I1
sS'internet-based'
p4457
I1
sS'imagining'
p4458
I1
sS'hotly'
p4459
I1
sS'indeed'
p4460
I15
sS'artist-as-designer'
p4461
I1
sS'drapidly'
p4462
I1
sS'mainly'
p4463
I1
sS'furnishes'
p4464
I3
sS'brain'
p4465
I3
sS'dismissed'
p4466
I1
sS'motions'
p4467
I1
sS'ever-shifting'
p4468
I1
sS'cold'
p4469
I2
sS'still'
p4470
I18
sS'culmination'
p4471
I1
sS'diversos'
p4472
I1
sS'forma'
p4473
I1
sS'paradoxically'
p4474
I1
sS'acknowledge'
p4475
I1
sS'selves'
p4476
I1
sS'chips'
p4477
I1
sS'reconnect'
p4478
I1
sS'presence'
p4479
I23
sS'vicinity'
p4480
I1
sS'coordinates'
p4481
I1
sS'forms'
p4482
I39
sS'immortality'
p4483
I2
sS'continue'
p4484
I3
sS'uvre'
p4485
I1
sS'dyson'
p4486
I1
sS'non'
p4487
I4
sS'halt'
p4488
I1
sS'disparate'
p4489
I2
sS'macro-time'
p4490
I1
sS'extinguished'
p4491
I1
sS'berio'
p4492
I1
sS'introduce'
p4493
I1
sS'scaling'
p4494
I1
sS'enfolded'
p4495
I1
sS'half'
p4496
I1
sS'not'
p4497
I271
sS'now'
p4498
I31
sS'provision'
p4499
I2
sS'nor'
p4500
I37
sS'enacted'
p4501
I2
sS'susceptibility'
p4502
I2
sS'term'
p4503
I21
sS'equality'
p4504
I2
sS'name'
p4505
I10
sS'lies'
p4506
I5
sS'james'
p4507
I5
sS'invents'
p4508
I1
sS'sos'
p4509
I1
sS'possibilities'
p4510
I13
sS'realistic'
p4511
I1
sS'entirely'
p4512
I11
sS'tradici'
p4513
I1
sS'realism'
p4514
I1
sS'individually'
p4515
I1
sS'el'
p4516
I1
sS'domain'
p4517
I8
sS'en'
p4518
I9
sS'vowel'
p4519
I1
sS'prompted'
p4520
I1
sS'challenged'
p4521
I1
sS'ee'
p4522
I1
sS'ed'
p4523
I2
sS'fr'
p4524
I1
sS'challenges'
p4525
I3
sS'ex'
p4526
I1
sS'begun'
p4527
I2
sS'year'
p4528
I2
sS'et'
p4529
I1
sS'kant'
p4530
I2
sS'obsession'
p4531
I3
sS'adequately'
p4532
I1
sS'es'
p4533
I3
sS'er'
p4534
I1
sS'abdication'
p4535
I1
sS'constitution'
p4536
I9
sS'shown'
p4537
I2
sS'opened'
p4538
I4
sS'forcefully'
p4539
I1
sS'space'
p4540
I64
sS'herself'
p4541
I1
sS'tensions'
p4542
I2
sS'furthermore'
p4543
I1
sS'factory'
p4544
I1
sS'increase'
p4545
I3
sS'meta-cinema'
p4546
I1
sS'rational'
p4547
I3
sS'systems-based'
p4548
I1
sS'shows'
p4549
I4
sS'inoperativity'
p4550
I1
sS'theory'
p4551
I29
sS'defenses'
p4552
I1
sS'indissociable'
p4553
I3
sS'iteration'
p4554
I1
sS'inputting'
p4555
I1
sS'blueprints'
p4556
I1
sS'specificityuy'
p4557
I1
sS'substatntive'
p4558
I1
sS'fixed'
p4559
I9
sS'contemplation'
p4560
I1
sS'digitization'
p4561
I2
sS'selections'
p4562
I1
sS'non-coded'
p4563
I1
sS'transition'
p4564
I4
sS'volution'
p4565
I1
sS'motion'
p4566
I3
sS'turn'
p4567
I10
sS'place'
p4568
I47
sS'waxm'
p4569
I1
sS'promotion'
p4570
I1
sS'qn'
p4571
I2
sS'serfs'
p4572
I1
sS'semblable'
p4573
I1
sS'origin'
p4574
I18
sS'orpheus'
p4575
I1
sS'xi'
p4576
I1
sS'enhances'
p4577
I2
sS'omitted'
p4578
I1
sS'variables'
p4579
I1
sS'coming'
p4580
I4
sS'symbolic'
p4581
I11
sS'comprised'
p4582
I1
sS'clumsy'
p4583
I1
sS'xx'
p4584
I1
sS'violences'
p4585
I1
sS'cybernetics'
p4586
I2
sS'directly'
p4587
I6
sS'comprises'
p4588
I2
sS'impossible'
p4589
I8
sS'message'
p4590
I2
sS'archon'
p4591
I1
sS'millions'
p4592
I1
sS'sheer'
p4593
I1
sS'necessarily'
p4594
I16
sS'sheet'
p4595
I1
sS'knoledge'
p4596
I2
sS'categorical'
p4597
I4
sS'caught'
p4598
I1
sS'liberate'
p4599
I1
sS'remotely'
p4600
I1
sS'returns'
p4601
I3
sS'failures'
p4602
I1
sS'reducible'
p4603
I1
sS'white'
p4604
I2
sS'national'
p4605
I2
sS'ias'
p4606
I4
sS'gives'
p4607
I8
sS'exploring'
p4608
I4
sS'humanos'
p4609
I1
sS'mostly'
p4610
I1
sS'that'
p4611
I628
sS'parte'
p4612
I1
sS'circulated'
p4613
I2
sS'eliminates'
p4614
I1
sS'stylized'
p4615
I2
sS'prosthesis'
p4616
I4
sS'quan'
p4617
I1
sS'self-activating'
p4618
I1
sS'editions'
p4619
I1
sS'circulates'
p4620
I1
sS'than'
p4621
I80
sS'specify'
p4622
I1
sS'population'
p4623
I1
sS'professionals'
p4624
I1
sS'television'
p4625
I4
sS'underwritten'
p4626
I1
sS'unfortunately'
p4627
I1
sS'accordance'
p4628
I2
sS'require'
p4629
I3
sS'transferred'
p4630
I1
sS'posit'
p4631
I2
sS'all-inclusive'
p4632
I1
sS'aesthetic'
p4633
I33
sS'impinge'
p4634
I2
sS'accessed'
p4635
I2
sS'outcome'
p4636
I3
sS'sublime'
p4637
I2
sS'published'
p4638
I3
sS'pre'
p4639
I1
sS'register'
p4640
I3
sS'froth'
p4641
I1
sS'remained'
p4642
I3
sS'craig'
p4643
I1
sS'pro'
p4644
I1
sS'psychical'
p4645
I12
sS'departure'
p4646
I2
sS'ant'
p4647
I1
sS'interrelation'
p4648
I1
sS'enourmous'
p4649
I1
sS'posited'
p4650
I3
sS'distorted'
p4651
I3
sS'abnormalities'
p4652
I1
sS'any'
p4653
I47
sS'connerton'
p4654
I2
sS'subsystems'
p4655
I1
sS'astonishingly'
p4656
I1
sS'offering'
p4657
I3
sS'director-curator'
p4658
I1
sS'overcoming'
p4659
I1
sS'asside'
p4660
I1
sS'sciences'
p4661
I4
sS'ideal'
p4662
I6
sS'animation'
p4663
I2
sS'repeatedly'
p4664
I2
sS'online'
p4665
I2
sS'objective'
p4666
I2
sS'idead'
p4667
I1
sS'paraphrase'
p4668
I1
sS'begin'
p4669
I1
sS'sure'
p4670
I1
sS'intermedia'
p4671
I2
sS'semi-lacanian'
p4672
I1
sS'price'
p4673
I2
sS'betrayal'
p4674
I1
sS'clearer'
p4675
I1
sS'designates'
p4676
I2
sS'falls'
p4677
I3
sS'importantly'
p4678
I2
sS'librarian'
p4679
I1
sS'com-para'
p4680
I1
sS'involving'
p4681
I3
sS'icon'
p4682
I1
sS'antihumanist'
p4683
I1
sS'picture'
p4684
I2
sS'considered'
p4685
I2
sS'nonvisual'
p4686
I1
sS'mmanence'
p4687
I1
sS'later'
p4688
I7
sS'implications'
p4689
I5
sS'retrieval'
p4690
I1
sS'script'
p4691
I1
sS'bourriaud'
p4692
I4
sS'pattern'
p4693
I3
sS'hear'
p4694
I3
sS'duplication'
p4695
I2
sS'sculpted'
p4696
I1
sS'quantity'
p4697
I5
sS'baudrillard'
p4698
I1
sS'permeable'
p4699
I2
sS'spaced'
p4700
I2
sS'entendre'
p4701
I3
sS'autopoiesis'
p4702
I1
sS'cheap'
p4703
I2
sS'spaces'
p4704
I6
sS'panopticon'
p4705
I2
sS'fifth'
p4706
I1
sS'ground'
p4707
I3
sS'enriches'
p4708
I1
sS'title'
p4709
I1
sS'postmodernist'
p4710
I1
sS'state'
p4711
I19
sS'supratemporal'
p4712
I1
sS'only'
p4713
I107
sS'wood'
p4714
I1
sS'believing'
p4715
I2
sS'taxonomy'
p4716
I1
sS'passing'
p4717
I4
sS'torical'
p4718
I1
sS'boyle'
p4719
I2
sS'bruno'
p4720
I1
sS'stalin'
p4721
I1
sS'chantal'
p4722
I1
sS'processning'
p4723
I1
sS'absent'
p4724
I2
sS'membrane'
p4725
I1
sS'truly'
p4726
I4
sS'cannot'
p4727
I19
sS'heideggerian'
p4728
I6
sS'manuscripts'
p4729
I1
sS'celebrate'
p4730
I3
sS'manovich'
p4731
I10
sS'closure'
p4732
I7
sS'reveal'
p4733
I8
sS'deprecate'
p4734
I1
sS'assignation'
p4735
I1
sS'held'
p4736
I3
sS'seena'
p4737
I1
sS'predicted'
p4738
I1
sS'llow'
p4739
I1
sS'mapped'
p4740
I1
sS'quelity'
p4741
I1
sS'discussing'
p4742
I1
sS'improvisor'
p4743
I1
sS'reveals'
p4744
I6
sS'concert'
p4745
I5
sS'physically'
p4746
I1
sS'staged'
p4747
I1
sS'ity'
p4748
I2
sS'color-coding'
p4749
I1
sS'essence'
p4750
I12
sS'namely'
p4751
I4
sS'actively'
p4752
I3
sS'existence'
p4753
I18
sS'separately'
p4754
I2
sS'collects'
p4755
I1
sS'untitled'
p4756
I1
sS'socieety'
p4757
I1
sS'concern'
p4758
I9
sS'loudspeaker'
p4759
I1
sS'suspects'
p4760
I1
sS'ways'
p4761
I17
sS'review'
p4762
I1
sS'opening'
p4763
I13
sS'definite'
p4764
I3
sS'justifies'
p4765
I1
sS'outside'
p4766
I27
sS'invokes'
p4767
I3
sS'between'
p4768
I122
sS'nonhierarchical'
p4769
I1
sS'arrival'
p4770
I2
sS'multiplied'
p4771
I1
sS'receivers'
p4772
I1
sS'originated'
p4773
I1
sS'comp'
p4774
I1
sS'garde'
p4775
I2
sS'discloses'
p4776
I1
sS'analyzes'
p4777
I1
sS'como'
p4778
I8
sS'hurts'
p4779
I1
sS'analyzed'
p4780
I2
sS'article'
p4781
I2
sS'come'
p4782
I25
sS'pixels'
p4783
I2
sS'originates'
p4784
I1
sS'discursively'
p4785
I1
sS'reaction'
p4786
I3
sS'ischen'
p4787
I1
sS'perceptions'
p4788
I1
sS'installation'
p4789
I2
sS'resides'
p4790
I2
sS'region'
p4791
I3
sS'for-itself'
p4792
I1
sS'enabling'
p4793
I1
sS'untethered'
p4794
I1
sS'aura'
p4795
I1
sS'duced'
p4796
I1
sS'fracta'
p4797
I1
sS'utterance'
p4798
I3
sS'comes'
p4799
I15
sS'duty'
p4800
I1
sS'brecht'
p4801
I1
sS'solving'
p4802
I1
sS'develeops'
p4803
I1
sS'lace'
p4804
I1
sS'hybrids'
p4805
I5
sS'por'
p4806
I2
sS'pos'
p4807
I1
sS'insist'
p4808
I1
sS'sampling'
p4809
I3
sS'satisfaction'
p4810
I2
sS'connectivity'
p4811
I3
sS'learning'
p4812
I7
sS'poi'
p4813
I1
sS'moreover'
p4814
I2
sS'technolgnologies'
p4815
I1
sS'punishes'
p4816
I1
sS'cares'
p4817
I1
sS'theorizing'
p4818
I1
sS'informed'
p4819
I2
sS'blend'
p4820
I1
sS'coupe'
p4821
I1
sS'imbricated'
p4822
I1
sS'legitimization'
p4823
I1
sS'imaginaries'
p4824
I1
sS'darks'
p4825
I1
sS'engine'
p4826
I1
sS'direction'
p4827
I1
sS'rodean'
p4828
I1
sS'designed'
p4829
I3
sS'commands'
p4830
I2
sS'observers'
p4831
I1
sS'individiual'
p4832
I1
sS'external'
p4833
I4
sS'stems'
p4834
I1
sS'attentive'
p4835
I2
sS'realities'
p4836
I2
sS'countless'
p4837
I1
sS'paying'
p4838
I1
sS'myself'
p4839
I4
sS'dataspace'
p4840
I1
sS'heuristic'
p4841
I2
sS'developing'
p4842
I1
sS'these'
p4843
I68
sS'accommodating'
p4844
I1
sS'nothingness'
p4845
I1
sS'refractory'
p4846
I1
sS'deceptively'
p4847
I1
sS'prescriptive'
p4848
I1
sS'distinctions'
p4849
I1
sS'orientation'
p4850
I2
sS'coupled'
p4851
I1
sS'catalyzing'
p4852
I1
sS'ocularcentrism'
p4853
I2
sS'telephone'
p4854
I4
sS'ibm704'
p4855
I1
sS'someone'
p4856
I3
sS'converts'
p4857
I1
sS'ironic'
p4858
I1
sS'commanded'
p4859
I2
sS'recombine'
p4860
I1
sS'revolutions'
p4861
I1
sS'develop'
p4862
I4
sS'author'
p4863
I29
sS'reshape'
p4864
I1
sS'granted'
p4865
I2
sS'knowable'
p4866
I1
sS'shifts'
p4867
I2
sS'epoch'
p4868
I1
sS'image-making'
p4869
I1
sS'distilled'
p4870
I1
sS'streams'
p4871
I1
sS'cointracted'
p4872
I1
sS'events'
p4873
I14
sS'status'
p4874
I4
sS'investigated'
p4875
I1
sS'mockery'
p4876
I1
sS'refusal'
p4877
I2
sS'ness'
p4878
I1
sS'impulsion'
p4879
I1
sS'director'
p4880
I1
sS'persons'
p4881
I1
sS'fruit'
p4882
I1
sS'arose'
p4883
I1
sS'archi-trace'
p4884
I2
sS'changing'
p4885
I4
sS'functionality'
p4886
I1
sS'tradition'
p4887
I8
sS'reference'
p4888
I2
sS'multimediality'
p4889
I4
sS'relies'
p4890
I1
sS'longing'
p4891
I1
sS'theater'
p4892
I2
sS'modes'
p4893
I2
sS'rance'
p4894
I8
sS'ticos'
p4895
I1
sS'constitutional'
p4896
I1
sS'magical'
p4897
I2
sS'compearance'
p4898
I3
sS'without'
p4899
I66
sS'components'
p4900
I5
sS'relied'
p4901
I1
sS'model'
p4902
I16
sS'laboratories'
p4903
I1
sS'darstellung'
p4904
I1
sS'bodies'
p4905
I9
sS'justify'
p4906
I1
sS'violence'
p4907
I8
sS'transmitting'
p4908
I1
sS'blindman'
p4909
I1
sS'guided'
p4910
I2
sS'actions'
p4911
I5
sS'electrification'
p4912
I1
sS'communities'
p4913
I7
sS'violent'
p4914
I3
sS'microtemporal'
p4915
I1
sS'correspondences'
p4916
I1
sS'touch'
p4917
I6
sS'meta-language'
p4918
I1
sS'speed'
p4919
I5
sS'similiarly'
p4920
I1
sS'blow'
p4921
I1
sS'sampled'
p4922
I1
sS'death'
p4923
I61
sS'europ'
p4924
I1
sS'widest'
p4925
I1
sS'feminist'
p4926
I6
sS'thinking'
p4927
I17
sS'senseless'
p4928
I1
sS'except'
p4929
I1
sS'desktop'
p4930
I1
sS'verse'
p4931
I1
sS'ranciere'
p4932
I6
sS'association'
p4933
I3
sS'versa'
p4934
I1
sS'engulfed'
p4935
I1
sS'role'
p4936
I17
sS'momentum'
p4937
I1
sS'real'
p4938
I33
sS'communitarian'
p4939
I2
sS'rules'
p4940
I12
sS'actualising'
p4941
I1
sS'confines'
p4942
I1
sS'early'
p4943
I9
sS'nocturnal'
p4944
I1
sS'listening'
p4945
I40
sS'symbolism'
p4946
I1
sS'using'
p4947
I9
sS'execution'
p4948
I2
sS'rear'
p4949
I1
sS'ruled'
p4950
I2
sS'faire'
p4951
I2
sS'utterances'
p4952
I1
sS'photographs'
p4953
I1
sS'ascription'
p4954
I1
sS'collective'
p4955
I18
sS'microsound'
p4956
I1
sS'benefit'
p4957
I2
sS'characterizes'
p4958
I2
sS'mcluchan'
p4959
I1
sS'tower'
p4960
I1
sS'reduced'
p4961
I8
sS'eternity'
p4962
I1
sS'incommensurable'
p4963
I1
sS'interesante'
p4964
I1
sS'verbal'
p4965
I3
sS'romatinc'
p4966
I1
sS'truths'
p4967
I1
sS'servile'
p4968
I1
sS'videodisc'
p4969
I1
sS'exposes'
p4970
I11
sS'monstrosity'
p4971
I1
sS'unraveling'
p4972
I1
sS'duration'
p4973
I3
sS'competences'
p4974
I1
sS'capability'
p4975
I1
sS'passions'
p4976
I4
sS'mood'
p4977
I1
sS'renounce'
p4978
I1
sS'frees'
p4979
I2
sS'teachings'
p4980
I1
sS'nazi'
p4981
I1
sS'recorded'
p4982
I2
sS'token'
p4983
I1
sS'stops'
p4984
I2
sS'resonate'
p4985
I2
sS'habits'
p4986
I3
sS'provides'
p4987
I6
sS'provider'
p4988
I3
sS'ethos'
p4989
I1
sS'compulsion'
p4990
I1
sS'porter'
p4991
I1
sS'architectonic'
p4992
I1
sS'assembly'
p4993
I1
sS'business'
p4994
I2
sS'francia'
p4995
I1
sS'equivalent'
p4996
I2
sS'communicate'
p4997
I1
sS'unease'
p4998
I1
sS'ontology'
p4999
I8
sS'comparison'
p5000
I1
sS'central'
p5001
I14
sS'ergonomically'
p5002
I2
sS'of'
p5003
I2398
sS'discussed'
p5004
I1
sS'greater'
p5005
I4
sS'ideology'
p5006
I5
sS'mutually'
p5007
I1
sS'journey'
p5008
I2
sS'disassociated'
p5009
I1
sS'internalize'
p5010
I1
sS'modelo'
p5011
I1
sS'phantasms'
p5012
I1
sS'discusses'
p5013
I2
sS'or'
p5014
I391
sS'tribe'
p5015
I1
sS'transforman'
p5016
I1
sS'cambridge'
p5017
I1
sS'modernists'
p5018
I1
sS'mii'
p5019
I1
sS'inclusion'
p5020
I1
sS'communication'
p5021
I36
sS'ineffectual'
p5022
I1
sS'numerically'
p5023
I1
sS'cursed'
p5024
I1
sS'cleaves'
p5025
I1
sS'determina'
p5026
I1
sS'involvement'
p5027
I2
sS'instrumento'
p5028
I1
sS'determine'
p5029
I2
sS'neuroscience'
p5030
I1
sS'operator'
p5031
I2
sS'confouonds'
p5032
I1
sS'your'
p5033
I2
sS'intervention'
p5034
I3
sS'cata'
p5035
I1
sS'logics'
p5036
I1
sS'area'
p5037
I5
sS'assumed'
p5038
I2
sS'strictly'
p5039
I2
sS'there'
p5040
I97
sS'improvised'
p5041
I1
sS'disposed'
p5042
I2
sS'epiphenomenon'
p5043
I1
sS'start'
p5044
I6
sS'low'
p5045
I1
sS'acousticians'
p5046
I1
sS'vertov'
p5047
I3
sS'vaietis'
p5048
I1
sS'strict'
p5049
I1
sS'assumes'
p5050
I4
sS'irreversibly'
p5051
I1
sS'scaletti'
p5052
I1
sS'darzustellen'
p5053
I1
sS'cticas'
p5054
I1
sS'alain'
p5055
I1
sS'amongst'
p5056
I1
sS'illuminates'
p5057
I1
sS'recoil'
p5058
I1
sS'anamn'
p5059
I2
sS'proclivities'
p5060
I1
sS'trying'
p5061
I2
sS'proposal'
p5062
I1
sS'longer'
p5063
I28
sS'applying'
p5064
I1
sS'circulation'
p5065
I1
sS'unrecognized'
p5066
I1
sS'multiplicity'
p5067
I2
sS'corporately'
p5068
I1
sS'artisans'
p5069
I1
sS'extermination'
p5070
I1
sS'tones'
p5071
I1
sS'define'
p5072
I5
sS'obtains'
p5073
I2
sS'cinema'
p5074
I15
sS'arch-music'
p5075
I1
sS'describe'
p5076
I9
sS'moved'
p5077
I2
sS'sales'
p5078
I1
sS'loops'
p5079
I1
sS'particularity'
p5080
I1
sS'scanned'
p5081
I10
sS'together'
p5082
I15
sS'bertolt'
p5083
I1
sS'barthes'
p5084
I7
sS'self-affirmation'
p5085
I1
sS'merest'
p5086
I1
sS'moves'
p5087
I4
sS'cabinets'
p5088
I1
sS'ossified'
p5089
I1
sS'beceome'
p5090
I1
sS'nancy'
p5091
I37
sS'storage'
p5092
I2
sS'idiom'
p5093
I2
sS'non-thing'
p5094
I1
sS'mathematics'
p5095
I2
sS'you'
p5096
I13
sS'preoccupation'
p5097
I1
sS'ariety'
p5098
I1
sS'proliferate'
p5099
I1
sS'selfness'
p5100
I1
sS'open-ended'
p5101
I3
sS'collaborative'
p5102
I11
sS'expropriation'
p5103
I1
sS'informated'
p5104
I1
sS'symbol'
p5105
I10
sS'indexicalityu'
p5106
I1
sS'beauvoir'
p5107
I1
sS'includes'
p5108
I4
sS'computerized'
p5109
I4
sS'flower'
p5110
I1
sS'peak'
p5111
I1
sS'sociologists'
p5112
I2
sS'subjectification'
p5113
I1
sS'trotsky'
p5114
I1
sS'tendencies'
p5115
I1
sS'intimacy'
p5116
I5
sS'vidualization'
p5117
I1
sS'building'
p5118
I7
sS'connotations'
p5119
I1
sS'unbind'
p5120
I1
sS'mente'
p5121
I1
sS'calls'
p5122
I8
sS'chords'
p5123
I1
sS'exhausting'
p5124
I1
sS'internalized'
p5125
I1
sS'bahktin'
p5126
I2
sS'prerequisite'
p5127
I2
sS'cores'
p5128
I1
sS'overdue'
p5129
I1
sS'strings'
p5130
I1
sS'giorgio'
p5131
I1
sS'precondition'
p5132
I3
sS'descartes'
p5133
I2
sS'exhibitions'
p5134
I3
sS'codification'
p5135
I2
sS'lack'
p5136
I1
sS'connectable'
p5137
I1
sS'upsurge'
p5138
I1
sS'near-nonsense'
p5139
I1
sS'generalize'
p5140
I1
sS'dise'
p5141
I1
sS'follow'
p5142
I4
sS'faster'
p5143
I1
sS'religious'
p5144
I2
sS'nonsensee'
p5145
I1
sS'referring'
p5146
I2
sS'subjected'
p5147
I1
sS'equivalence'
p5148
I1
sS'acting'
p5149
I6
sS'opportunities'
p5150
I1
sS'foster'
p5151
I4
sS'dominated'
p5152
I3
sS'nodes'
p5153
I1
sS'presentation'
p5154
I3
sS'traditionally'
p5155
I3
sS'passivity'
p5156
I1
sS'activities'
p5157
I4
sS'belonging'
p5158
I3
sS'woman'
p5159
I3
sS'attribution'
p5160
I1
sS'transducers'
p5161
I1
sS'very'
p5162
I42
sS'artist-as-ethnographer'
p5163
I1
sS'abgrund'
p5164
I1
sS'induce'
p5165
I2
sS'unregulated'
p5166
I1
sS'verb'
p5167
I1
sS'decide'
p5168
I2
sS'awful'
p5169
I1
sS'autopoi'
p5170
I1
sS'proscribed'
p5171
I1
sS'deficient'
p5172
I1
sS'louis'
p5173
I1
sS'list'
p5174
I5
sS'undone'
p5175
I1
sS'unproblematic'
p5176
I1
sS'immanent'
p5177
I4
sS'employing'
p5178
I2
sS'tem'
p5179
I1
sS'abstracted'
p5180
I2
sS'appearance'
p5181
I4
sS'unheard'
p5182
I1
sS'rate'
p5183
I1
sS'invention'
p5184
I4
sS'design'
p5185
I7
sS'resound'
p5186
I3
sS'functioning'
p5187
I3
sS'imposing'
p5188
I1
sS'non-discursive'
p5189
I1
sS'what'
p5190
I137
sS'sub'
p5191
I1
sS'consumers'
p5192
I1
sS'preelectricidad'
p5193
I1
sS'sonification'
p5194
I5
sS'deeply'
p5195
I1
sS'sum'
p5196
I2
sS'drifting'
p5197
I1
sS'out-of'
p5198
I1
sS'nand'
p5199
I1
sS'version'
p5200
I4
sS'attitudes'
p5201
I1
sS'intersect'
p5202
I2
sS'fractional'
p5203
I1
sS'information-processing'
p5204
I2
sS'learned'
p5205
I2
sS'multitude'
p5206
I3
sS'textuality'
p5207
I1
sS'edited'
p5208
I1
sS'entailing'
p5209
I1
sS'ostensive'
p5210
I1
sS'klavierstuck'
p5211
I1
sS'enabled'
p5212
I1
sS'appropriated'
p5213
I2
sS'communicable'
p5214
I1
sS'behaviour'
p5215
I3
sS'modular'
p5216
I2
sS'tracks'
p5217
I1
sS'selective'
p5218
I2
sS'galilean'
p5219
I1
sS'excess'
p5220
I6
sS'depend'
p5221
I3
sS'epitome'
p5222
I2
sS'strong'
p5223
I2
sS'equations'
p5224
I1
sS'historicism'
p5225
I1
sS'enwezor'
p5226
I1
sS'ahead'
p5227
I2
sS'extraordinary'
p5228
I1
sS'inspired'
p5229
I3
sS'allows'
p5230
I9
sS'reason'
p5231
I5
sS'amount'
p5232
I2
sS'musically'
p5233
I1
sS'proxy'
p5234
I2
sS'uniquely'
p5235
I3
sS'technique'
p5236
I4
sS'shuffle'
p5237
I1
sS'disposition'
p5238
I1
sS'family'
p5239
I3
sS'mediator'
p5240
I1
sS'marginal'
p5241
I1
sS'exlored'
p5242
I1
sS'rience'
p5243
I1
sS'put'
p5244
I13
sS'analyzing'
p5245
I3
sS'aimed'
p5246
I1
sS'originarity'
p5247
I1
sS'vide'
p5248
I1
sS'archia'
p5249
I2
sS'stiles'
p5250
I1
sS'exemplarity'
p5251
I1
sS'aberrant'
p5252
I1
sS'conventional'
p5253
I1
sS'takes'
p5254
I27
sS'probabilities'
p5255
I1
sS'revelation'
p5256
I2
sS'extenssive'
p5257
I1
sS'contains'
p5258
I2
sS'nomological'
p5259
I5
sS'chaotic'
p5260
I1
sS'taken'
p5261
I10
sS'promoting'
p5262
I2
sS'injury'
p5263
I1
sS'unthinkable'
p5264
I1
sS'entails'
p5265
I2
sS'israel'
p5266
I7
sS'delusion'
p5267
I3
sS'erode'
p5268
I1
sS'determinations'
p5269
I1
sS'exigency'
p5270
I2
sS'ejected'
p5271
I1
sS'postrsructuralist'
p5272
I1
sS'unwritten-out'
p5273
I1
sS'indenture'
p5274
I1
sS'instrumental'
p5275
I4
sS'documentas'
p5276
I1
sS'domination'
p5277
I7
sS'basically'
p5278
I1
sS'impulse'
p5279
I1
sS'known'
p5280
I6
sS'producing'
p5281
I6
sS'sovereignty'
p5282
I9
sS'legitimation'
p5283
I4
sS'helped'
p5284
I1
sS'shielded'
p5285
I1
sS'equation'
p5286
I1
sS'ense'
p5287
I1
sS'arrangements'
p5288
I1
sS'subtends'
p5289
I1
sS'sociocultural'
p5290
I3
sS'tiplicity'
p5291
I1
sS'spontaneous'
p5292
I1
sS'history'
p5293
I38
sS'psychoanalytic'
p5294
I1
sS'challenging'
p5295
I3
sS'pushes'
p5296
I1
sS'beniger'
p5297
I1
sS'searchlight'
p5298
I1
sS'taht'
p5299
I2
sS'claimed'
p5300
I2
sS'imitation'
p5301
I3
sS'arise'
p5302
I2
sS'exclude'
p5303
I1
sS'airplane'
p5304
I1
sS'mn'
p5305
I2
sS'species'
p5306
I1
sS'influenced'
p5307
I1
sS'mentral'
p5308
I1
sS'answer'
p5309
I1
sS'egalitarian'
p5310
I1
sS'broadly'
p5311
I2
sS'prussian'
p5312
I1
sS'rather'
p5313
I59
sS'breaking'
p5314
I4
sS'utilize'
p5315
I1
sS'constructed'
p5316
I8
sS'respoinsability'
p5317
I1
sS'reject'
p5318
I1
sS'subjectile'
p5319
I1
sS'ft'
p5320
I1
sS'tried'
p5321
I2
sS'communicating'
p5322
I1
sS'emulate'
p5323
I1
sS'rainforest'
p5324
I1
sS'derived'
p5325
I5
sS'reflect'
p5326
I4
sS'interior'
p5327
I2
sS'finality'
p5328
I1
sS'remediation'
p5329
I2
sS'invasion'
p5330
I1
sS'horizontal'
p5331
I1
sS'derives'
p5332
I2
sS'predilection'
p5333
I3
sS'plugboards'
p5334
I1
sS'fo'
p5335
I4
sS'contrived'
p5336
I2
sS'oboe'
p5337
I1
sS'obstinately'
p5338
I2
sS'morphing'
p5339
I1
sS'documentation'
p5340
I1
sS'overnight'
p5341
I1
sS'syntagm'
p5342
I11
sS'redescription'
p5343
I1
sS'actor-network'
p5344
I4
sS'ego'
p5345
I1
sS'banks'
p5346
I2
sS'dream'
p5347
I3
sS'photoshop'
p5348
I1
sS'reproduced'
p5349
I1
sS'help'
p5350
I2
sS'gauges'
p5351
I1
sS'hierarchy'
p5352
I2
sS'developed'
p5353
I9
sS'uvr'
p5354
I1
sS'artwork'
p5355
I7
sS'soon'
p5356
I6
sS'practicioners'
p5357
I1
sS'interpersonal'
p5358
I1
sS'unite'
p5359
I1
sS'sensory-motor'
p5360
I2
sS'supplementarily'
p5361
I1
sS'reminiscences'
p5362
I1
sS'enchantment'
p5363
I2
sS'unleashing'
p5364
I2
sS'obviou'
p5365
I1
sS'mites'
p5366
I2
sS'actually'
p5367
I7
sS'resort'
p5368
I1
sS'absence'
p5369
I11
sS'strange'
p5370
I2
sS'systems'
p5371
I31
sS'stridency'
p5372
I1
sS'radical'
p5373
I3
sS'might'
p5374
I16
sS'animism'
p5375
I1
sS'motivated'
p5376
I1
sS'cel'
p5377
I1
sS'luego'
p5378
I1
sS'arsenal'
p5379
I1
sS'framework'
p5380
I4
sS'anticipates'
p5381
I1
sS'munity'
p5382
I1
sS'indiscernibility'
p5383
I1
sS'technolo'
p5384
I1
sS'instructions'
p5385
I11
sS'growing'
p5386
I3
sS'erection'
p5387
I1
sS'sofware'
p5388
I1
sS'imprisoned'
p5389
I1
sS'fully'
p5390
I8
sS'decimal'
p5391
I1
sS'level'
p5392
I21
sS'romanticizing'
p5393
I1
sS'fairs'
p5394
I1
sS'did'
p5395
I7
sS'plenitudes'
p5396
I1
sS'mastered'
p5397
I2
sS'letting'
p5398
I3
sS'notated'
p5399
I1
sS'inherent'
p5400
I5
sS'cahiers'
p5401
I1
sS'characterized'
p5402
I3
sS'referred'
p5403
I8
sS'sketches'
p5404
I1
sS'dig'
p5405
I1
sS'generation'
p5406
I4
sS'effacement'
p5407
I1
sS'punitive'
p5408
I1
sS'quantum'
p5409
I1
sS'evenr'
p5410
I1
sS'event'
p5411
I10
sS'impersonation'
p5412
I1
sS'consonance'
p5413
I1
sS'item'
p5414
I1
sS'convicting'
p5415
I1
sS'non-explosively'
p5416
I1
sS'robert'
p5417
I1
sS'since'
p5418
I14
sS'meditating'
p5419
I1
sS'publish'
p5420
I1
sS'sustain'
p5421
I1
sS'exteriority'
p5422
I7
sS'ramified'
p5423
I1
sS'onto-theological'
p5424
I1
sS'induced'
p5425
I1
sS'issue'
p5426
I1
sS'sympathized'
p5427
I1
sS'denounces'
p5428
I1
sS'ass'
p5429
I1
sS'expansive'
p5430
I1
sS'inert'
p5431
I1
sS'favored'
p5432
I1
sS'neutrally'
p5433
I1
sS'demostrates'
p5434
I1
sS'effect'
p5435
I6
sS'labs'
p5436
I1
sS'close-up'
p5437
I1
sS'rigorism'
p5438
I1
sS'base'
p5439
I5
sS'reconfigure'
p5440
I1
sS'ask'
p5441
I5
sS'teach'
p5442
I1
sS'generate'
p5443
I2
sS'pur'
p5444
I1
sS'stage-managing'
p5445
I1
sS'diffused'
p5446
I1
sS'unresolved'
p5447
I1
sS'geal-oriented'
p5448
I1
sS'thread'
p5449
I1
sS'overlaid'
p5450
I2
sS'perceptible'
p5451
I2
sS'persists'
p5452
I2
sS'terrible'
p5453
I1
sS'purposive'
p5454
I1
sS'american'
p5455
I1
sS'specular'
p5456
I2
sS'technoscience'
p5457
I1
sS'businessmen'
p5458
I1
sS'threat'
p5459
I1
sS'leading'
p5460
I2
sS'consequence'
p5461
I3
sS'inter-player'
p5462
I1
sS'interact'
p5463
I2
sS'feed'
p5464
I2
sS'connotation'
p5465
I1
sS'seeming'
p5466
I1
sS'probability'
p5467
I3
sS'tural'
p5468
I1
sS'feel'
p5469
I1
sS'relate'
p5470
I3
sS'psychoanalysis'
p5471
I3
sS'reflected'
p5472
I1
sS'fancy'
p5473
I1
sS'linking'
p5474
I1
sS'transcendence'
p5475
I3
sS'sympathy'
p5476
I1
sS'enlarged'
p5477
I1
sS'construct'
p5478
I7
sS'general'
p5479
I24
sS'blank'
p5480
I1
sS'miss'
p5481
I1
sS'corporal'
p5482
I3
sS'passes'
p5483
I3
sS'story'
p5484
I21
sS'well-foundedness'
p5485
I1
sS'gamelan'
p5486
I1
sS'interwoven'
p5487
I1
sS'interviews'
p5488
I1
sS'hangs'
p5489
I1
sS'assumption'
p5490
I3
sS'expand'
p5491
I3
sS'passed'
p5492
I2
sS'immanentism'
p5493
I2
sS'scheme'
p5494
I3
sS'store'
p5495
I3
sS'schema'
p5496
I4
sS'injunction'
p5497
I5
sS'trapped'
p5498
I1
sS'exploded'
p5499
I2
sS'optical'
p5500
I4
sS'longtemps'
p5501
I1
sS'authors'
p5502
I5
sS'off'
p5503
I5
sS'translation'
p5504
I11
sS'shrunken'
p5505
I1
sS'einsteint'
p5506
I1
sS'kind'
p5507
I22
sS'institutionalization'
p5508
I1
sS'unicity'
p5509
I1
sS'collaborations'
p5510
I1
sS'double'
p5511
I2
sS'anticipate'
p5512
I1
sS'compositores'
p5513
I1
sS'invaded'
p5514
I4
sS'aims'
p5515
I3
sS'utopia'
p5516
I2
sS'intensities'
p5517
I2
sS'uncanny'
p5518
I1
sS'sts'
p5519
I1
sS'toward'
p5520
I13
sS'microstructural'
p5521
I1
sS'deciding'
p5522
I1
sS'motivation'
p5523
I1
sS'obstacles'
p5524
I2
sS'storytelling'
p5525
I7
sS'footnote'
p5526
I4
sS'alongside'
p5527
I2
sS'futurists'
p5528
I1
sS'randomly'
p5529
I1
sS'transcriptions'
p5530
I1
sS'substantial'
p5531
I2
sS'dramatises'
p5532
I1
sS'sentences'
p5533
I1
sS'bigelow'
p5534
I1
sS'organs'
p5535
I2
sS'sensual'
p5536
I3
sS'lie'
p5537
I2
sS'constructions'
p5538
I2
sS'arkh'
p5539
I7
sS'para'
p5540
I3
sS'patterns'
p5541
I8
sS'check'
p5542
I1
sS'speculative'
p5543
I1
sS'majowr'
p5544
I1
sS'empirically'
p5545
I1
sS'labour'
p5546
I3
sS'substitute'
p5547
I4
sS'comprehended'
p5548
I1
sS'finding'
p5549
I2
sS'nuestras'
p5550
I1
sS'indiscernible'
p5551
I1
sS'simultaneity'
p5552
I1
sS'postmoderns'
p5553
I1
sS'towards'
p5554
I4
sS'electric'
p5555
I8
sS'quote'
p5556
I2
sS'pertenece'
p5557
I1
sS'reach'
p5558
I4
sS'architects'
p5559
I1
sS'perceptive'
p5560
I1
sS'experiences'
p5561
I8
sS'vistos'
p5562
I1
sS'enduring'
p5563
I1
sS'position'
p5564
I16
sS'panoptic'
p5565
I1
sS'infrastructures'
p5566
I3
sS'transcending'
p5567
I1
sS'stands'
p5568
I5
sS'creators'
p5569
I1
sS'mobile'
p5570
I5
sS'performances'
p5571
I3
sS'clear'
p5572
I5
sS'popularity'
p5573
I1
sS'coincides'
p5574
I1
sS'componer'
p5575
I1
sS'traditional'
p5576
I10
sS'struc'
p5577
I1
sS'tubes'
p5578
I1
sS'institutions'
p5579
I10
sS'stones'
p5580
I2
sS'intertextuality'
p5581
I2
sS'phenomenon'
p5582
I7
sS'rsult'
p5583
I1
sS'tewnty-first'
p5584
I1
sS'jean-franc'
p5585
I1
sS'inventing'
p5586
I1
sS'unbridled'
p5587
I1
sS'melody'
p5588
I4
sS'consonant'
p5589
I1
sS'completion'
p5590
I1
sS'computability'
p5591
I1
sS'traditionnal'
p5592
I1
sS'parameters'
p5593
I4
sS'justice'
p5594
I1
sS'stairs'
p5595
I1
sS'flesh'
p5596
I2
sS'paranoia'
p5597
I1
sS'technologically'
p5598
I1
sS'abiding'
p5599
I2
sS'betray'
p5600
I1
sS'transcendental'
p5601
I3
sS'feminists'
p5602
I2
sS'suspect'
p5603
I3
sS'circle'
p5604
I2
sS'anarchiving'
p5605
I1
sS'kramer'
p5606
I1
sS'briefly'
p5607
I1
sS'shepherd'
p5608
I1
sS'his'
p5609
I64
sS'dominant'
p5610
I5
sS'creativa'
p5611
I1
sS'meanwhile'
p5612
I1
sS'wagner'
p5613
I1
sS'sensible'
p5614
I3
sS'famous'
p5615
I1
sS'basement'
p5616
I1
sS'boils'
p5617
I1
sS'proust'
p5618
I1
sS'intensify'
p5619
I1
sS'poie'
p5620
I2
sS'contextual'
p5621
I7
sS'inside-out'
p5622
I1
sS'colin'
p5623
I1
sS'intensive'
p5624
I1
sS'adhering'
p5625
I1
sS'alteration'
p5626
I1
sS'oppenheimer'
p5627
I2
sS'stored'
p5628
I5
sS'cartoons'
p5629
I1
sS'withdrawal'
p5630
I1
sS'convept'
p5631
I1
sS'relentless'
p5632
I1
sS'wrote'
p5633
I1
sS'joy'
p5634
I6
sS'cambios'
p5635
I2
sS'signify'
p5636
I2
sS'achieved'
p5637
I3
sS'ex-position'
p5638
I2
sS'intelligence'
p5639
I2
sS'audiencia'
p5640
I1
sS'crackle'
p5641
I1
sS'schizophrenic'
p5642
I1
sS'culture'
p5643
I37
sS'schizophrenia'
p5644
I1
sS'bare'
p5645
I3
sS'descriptions'
p5646
I3
sS'mediators'
p5647
I2
sS'close'
p5648
I7
sS'constellation'
p5649
I1
sS'heteroglossia'
p5650
I2
sS'definitely'
p5651
I2
sS'recording'
p5652
I1
sS'pathbreaking'
p5653
I2
sS'blurs'
p5654
I1
sS'libraries'
p5655
I1
sS'various'
p5656
I18
sS'probably'
p5657
I2
sS'conditions'
p5658
I16
sS'solo'
p5659
I1
sS'latin'
p5660
I1
sS'recently'
p5661
I1
sS'creating'
p5662
I10
sS'unconscious'
p5663
I9
sS'missing'
p5664
I2
sS'initially'
p5665
I1
sS'scheherazade'
p5666
I1
sS'general-purpose'
p5667
I1
sS'orchestra'
p5668
I3
sS'discerns'
p5669
I1
sS'opposition'
p5670
I10
sS'distinguish'
p5671
I2
sS'remaining'
p5672
I1
sS'both'
p5673
I39
sS'collaborators'
p5674
I1
sS'r-th'
p5675
I1
sS'feudal'
p5676
I1
sS'curated'
p5677
I1
sS'betrayed'
p5678
I1
sS'rists'
p5679
I1
sS'what-has-come-to-be'
p5680
I1
sS'sensitive'
p5681
I1
sS'embodiments'
p5682
I1
sS'consigning'
p5683
I1
sS'vaster'
p5684
I1
sS'context'
p5685
I38
sS'pleasure-in-pain'
p5686
I1
sS'finds'
p5687
I3
sS'secrete'
p5688
I1
sS'reside'
p5689
I2
sS'liked'
p5690
I1
sS'regulates'
p5691
I1
sS'hypomn'
p5692
I1
sS'large-scale'
p5693
I1
sS'reasons'
p5694
I1
sS'mouffe'
p5695
I1
sS'whatever'
p5696
I4
sS'decipher'
p5697
I1
sS'medios'
p5698
I6
sS'regulated'
p5699
I2
sS'incandescent'
p5700
I1
sS'village'
p5701
I1
sS'vessel'
p5702
I1
sS'mathematically'
p5703
I2
sS'decentered'
p5704
I2
sS'pr'
p5705
I1
sS'described'
p5706
I7
sS'nicos'
p5707
I1
sS'all'
p5708
I106
sS'political'
p5709
I40
sS'due'
p5710
I1
sS'strategy'
p5711
I6
sS'whom'
p5712
I3
sS'reduction'
p5713
I1
sS'describes'
p5714
I7
sS'complicated'
p5715
I1
sS'wherein'
p5716
I2
sS'immanence'
p5717
I13
sS'eurydice'
p5718
I1
sS'collected'
p5719
I1
sS'ph'
p5720
I1
sS'territory'
p5721
I4
sS'empty'
p5722
I3
sS'walter'
p5723
I1
sS'dialogue'
p5724
I10
sS'lived'
p5725
I1
sS'partly'
p5726
I3
sS'imag'
p5727
I1
sS'citizen'
p5728
I1
sS'modelling'
p5729
I1
sS'else'
p5730
I6
sS'coevolved'
p5731
I1
sS'determination'
p5732
I2
sS'demand'
p5733
I2
sS'developments'
p5734
I1
sS'fered'
p5735
I1
sS'referrals'
p5736
I6
sS'conception'
p5737
I9
sS'look'
p5738
I2
sS'indefinitely'
p5739
I2
sS'animates'
p5740
I1
sS'being-in-common'
p5741
I5
sS'while'
p5742
I27
sS'match'
p5743
I1
sS'hegel'
p5744
I12
sS'luciano'
p5745
I1
sS'guide'
p5746
I2
sS'loop'
p5747
I2
sS'alike'
p5748
I1
sS'hauntedness'
p5749
I3
sS'unitary'
p5750
I2
sS'dictum'
p5751
I1
sS'silverman'
p5752
I1
sS'numerical'
p5753
I9
sS'rulers'
p5754
I1
sS'neurons'
p5755
I1
sS'enbtirely'
p5756
I1
sS'legitimizing'
p5757
I1
sS'currents'
p5758
I1
sS'vibratory'
p5759
I1
sS'communal'
p5760
I6
sS'grant'
p5761
I1
sS'belong'
p5762
I1
sS'exemplifies'
p5763
I1
sS'subliminal'
p5764
I1
sS'karl'
p5765
I1
sS'inseparable'
p5766
I1
sS'grand'
p5767
I2
sS'modification'
p5768
I1
sS'composition'
p5769
I21
sS'conflict'
p5770
I2
sS'higher'
p5771
I2
sS'used'
p5772
I23
sS'temporary'
p5773
I2
sS'curators'
p5774
I3
sS'negotiate'
p5775
I1
sS'flows'
p5776
I1
sS'nights'
p5777
I1
sS'arrived'
p5778
I2
sS'user'
p5779
I5
sS'haunting'
p5780
I2
sS'kaleidoscope'
p5781
I1
sS'bourgeois'
p5782
I3
sS'built'
p5783
I3
sS'destabilized'
p5784
I1
sS'database'
p5785
I87
sS'rediscover'
p5786
I1
sS'human-centered'
p5787
I1
sS'analysis'
p5788
I17
sS'obviously'
p5789
I2
sS'erwin'
p5790
I1
sS'calibrated'
p5791
I1
sS'consistency'
p5792
I3
sS'stating'
p5793
I1
sS'know'
p5794
I6
sS'bataille'
p5795
I10
sS'distances'
p5796
I1
sS'spsaces'
p5797
I1
sS'reliant'
p5798
I1
sS'deployment'
p5799
I2
sS'morsel'
p5800
I1
sS'press'
p5801
I3
sS'intervals'
p5802
I1
sS'questions'
p5803
I10
sS'spatially'
p5804
I2
sS'qi'
p5805
I1
sS'schopenhauer'
p5806
I1
sS'wounding'
p5807
I1
sS'intermedium'
p5808
I1
sS'workers'
p5809
I1
sS'deconstructable'
p5810
I1
sS'pasivo'
p5811
I1
sS'ek-sists'
p5812
I1
sS'representational'
p5813
I2
sS'being-together'
p5814
I2
sS'granel'
p5815
I1
sS'questioned'
p5816
I1
sS'problematic'
p5817
I1
sS'guarantees'
p5818
I5
sS'totally'
p5819
I2
sS'transformation'
p5820
I7
sS'meta-archive'
p5821
I1
sS'build'
p5822
I1
sS'associations'
p5823
I4
sS'lacking'
p5824
I2
sS'intentionality'
p5825
I3
sS'self-repetition'
p5826
I2
sS'capacities'
p5827
I2
sS'plug-ins'
p5828
I1
sS'philosohpical'
p5829
I1
sS'game'
p5830
I1
sS'culturally'
p5831
I3
sS'vibrates'
p5832
I1
sS'ecosystems'
p5833
I2
sS'lowbrow'
p5834
I1
sS'wings'
p5835
I1
sS'success'
p5836
I1
sS'submission'
p5837
I1
sS'overarching'
p5838
I1
sS'systematically'
p5839
I2
sS'confront'
p5840
I1
sS'signal'
p5841
I4
sS'being-toward-the-end'
p5842
I1
sS'shapes'
p5843
I2
sS'donna'
p5844
I1
sS'translators'
p5845
I1
sS'popular'
p5846
I2
sS'contradictions'
p5847
I4
sS'vaiuous'
p5848
I1
sS'essential'
p5849
I6
sS'modus'
p5850
I2
sS'mathematical'
p5851
I5
sS'sketch'
p5852
I2
sS'neumann'
p5853
I1
sS'anarchive'
p5854
I1
sS'anti-heroes'
p5855
I1
sS'creation'
p5856
I10
sS'some'
p5857
I34
sS'pierre'
p5858
I2
sS'urgent'
p5859
I1
sS'economic'
p5860
I8
sS'surmount'
p5861
I1
sS'universes'
p5862
I1
sS'opertor'
p5863
I1
sS'reconstituted'
p5864
I3
sS'rarely'
p5865
I1
sS'describing'
p5866
I2
sS'paleolithic'
p5867
I1
sS'sublate'
p5868
I1
sS'liturgy'
p5869
I1
sS'jouissance'
p5870
I1
sS'civilization'
p5871
I1
sS'slash'
p5872
I2
sS'innovation'
p5873
I3
sS'tendre'
p5874
I1
sS'forgets'
p5875
I3
sS'everybody'
p5876
I1
sS'anecdotes'
p5877
I1
sS'actants'
p5878
I2
sS'processing'
p5879
I3
sS'undergone'
p5880
I1
sS'stem'
p5881
I1
sS'step'
p5882
I7
sS'nerves'
p5883
I1
sS'informatics'
p5884
I8
sS'unrefuted'
p5885
I1
sS'faith'
p5886
I2
sS'postmodernis'
p5887
I1
sS'entailed'
p5888
I1
sS'tracing'
p5889
I8
sS're-emergence'
p5890
I1
sS'simulation'
p5891
I4
sS'sake'
p5892
I1
sS'postserialism'
p5893
I1
sS'autopoetic'
p5894
I1
sS'silence'
p5895
I1
sS'seeing'
p5896
I2
sS'within'
p5897
I56
sS'nothing'
p5898
I39
sS'paradigmatic'
p5899
I3
sS'presupposes'
p5900
I3
sS'cyberarts'
p5901
I1
sS'beore'
p5902
I1
sS'impressed'
p5903
I2
sS'classical'
p5904
I4
sS'renewal'
p5905
I1
sS'jameson'
p5906
I1
sS'measured'
p5907
I3
sS'question'
p5908
I18
sS'long'
p5909
I7
sS'signifier'
p5910
I1
sS'incongruously'
p5911
I1
sS'like-being'
p5912
I1
sS'plae'
p5913
I1
sS'heritage'
p5914
I1
sS'signified'
p5915
I3
sS'conceivable'
p5916
I3
sS'analyze'
p5917
I3
sS'sections'
p5918
I1
sS'authored'
p5919
I1
sS'audio-visual'
p5920
I2
sS'files'
p5921
I1
sS'mundane'
p5922
I3
sS'narrator'
p5923
I5
sS'reclamation'
p5924
I1
sS'collapsed'
p5925
I1
sS'criteria'
p5926
I3
sS'irregultarities'
p5927
I1
sS'encode'
p5928
I1
sS'properly'
p5929
I3
sS'kino-eye'
p5930
I1
sS'filed'
p5931
I1
sS'dull'
p5932
I1
sS'partitioning'
p5933
I1
sS'consist'
p5934
I3
sS'well-funded'
p5935
I1
sS'characteristic'
p5936
I4
sS'stumbling'
p5937
I1
sS'par'
p5938
I1
sS'politic'
p5939
I3
sS'attitueds'
p5940
I1
sS'homo'
p5941
I1
sS'participants'
p5942
I5
sS'heterogeneous'
p5943
I3
sS'similar'
p5944
I5
sS'deep-structural'
p5945
I1
sS'modeled'
p5946
I1
sS'individuality'
p5947
I4
sS'lazzarato'
p5948
I2
sS'ordered'
p5949
I1
sS'convey'
p5950
I2
sS'articulating'
p5951
I1
sS'nomads'
p5952
I1
sS'accessibility'
p5953
I1
sS'doesn'
p5954
I2
sS'premoderns'
p5955
I1
sS'ancestors'
p5956
I1
sS'scrutinized'
p5957
I1
sS'amounts'
p5958
I2
sS'deconstructed'
p5959
I1
sS'peace'
p5960
I1
sS'resistances'
p5961
I1
sS'nam'
p5962
I1
sS'genome'
p5963
I2
sS'reintegration'
p5964
I1
sS'department'
p5965
I1
sS'nica'
p5966
I1
sS'arithmetic'
p5967
I1
sS'dictating'
p5968
I1
sS'draw'
p5969
I3
sS'spectators'
p5970
I1
sS'users'
p5971
I3
sS'calculating'
p5972
I1
sS'critiques'
p5973
I2
sS'problems'
p5974
I1
sS'william'
p5975
I1
sS'meaning'
p5976
I72
sS'refrain'
p5977
I1
sS'ruthlessly'
p5978
I1
sS'laclau'
p5979
I1
sS'posters'
p5980
I1
sS'structure'
p5981
I46
sS'aesthetically'
p5982
I1
sS'independently'
p5983
I3
sS'suffers'
p5984
I1
sS'happier'
p5985
I1
sS'reproached'
p5986
I1
sS'vice'
p5987
I1
sS'zooming'
p5988
I1
sS'organism'
p5989
I1
sS'required'
p5990
I4
sS'depth'
p5991
I6
sS'attaining'
p5992
I1
sS'narrative'
p5993
I44
sS'requires'
p5994
I6
sS'sounded'
p5995
I1
sS'once'
p5996
I22
sS'karlheinz'
p5997
I1
sS'psyche'
p5998
I9
sS'proposition'
p5999
I1
sS'philosopher'
p6000
I1
sS'during'
p6001
I4
sS'go'
p6002
I6
sS'discordant'
p6003
I1
sS'manipulations'
p6004
I1
sS'cases'
p6005
I7
sS'issues'
p6006
I2
sS'effectuating'
p6007
I2
sS'theorist'
p6008
I1
sS'simon'
p6009
I1
sS'disposal'
p6010
I1
sS'deterministic'
p6011
I1
sS'fascist'
p6012
I1
sS'languages'
p6013
I6
sS'excluded'
p6014
I2
sS'stable'
p6015
I3
sS'discretion'
p6016
I1
sS'insights'
p6017
I2
sS'dramatically'
p6018
I3
sS'relocated'
p6019
I1
sS'breathing'
p6020
I2
sS'convokes'
p6021
I1
sS'triangulated'
p6022
I1
sS'summoning'
p6023
I1
sS'unstructured'
p6024
I1
sS'seizes'
p6025
I1
sS'chooses'
p6026
I1
sS'underscore'
p6027
I2
sS'telling'
p6028
I3
sS'mediations'
p6029
I2
sS'tonal'
p6030
I1
sS'fast-paced'
p6031
I1
sS'positions'
p6032
I2
sS'button'
p6033
I1
sS'transposing'
p6034
I1
sS'audification'
p6035
I1
sS'quoting'
p6036
I1
sS'assemblage'
p6037
I2
sS'configurations'
p6038
I4
sS'concluded'
p6039
I1
sS'dilute'
p6040
I1
sS'folds'
p6041
I1
sS'sensation'
p6042
I2
sS'interfaced'
p6043
I1
sS'click'
p6044
I1
sS'folk'
p6045
I1
sS'universities'
p6046
I1
sS'incites'
p6047
I1
sS'sausage'
p6048
I1
sS'plays'
p6049
I1
sS'evokes'
p6050
I1
sS'paintings'
p6051
I1
sS'systematizes'
p6052
I1
sS'slight'
p6053
I1
sS'bergman'
p6054
I1
sS'unhuman'
p6055
I1
sS'cell'
p6056
I3
sS'grundmann'
p6057
I1
sS'evoked'
p6058
I1
sS'saussure'
p6059
I2
sS'capital'
p6060
I3
sS'collins'
p6061
I1
sS'nicholas'
p6062
I1
sS'denunciations'
p6063
I1
sS'chose'
p6064
I1
sS'desires'
p6065
I1
sS'wirephoto'
p6066
I1
sS'commercial'
p6067
I3
sS'cubitt'
p6068
I1
sS'democ'
p6069
I1
sS'following'
p6070
I11
sS'explore'
p6071
I4
sS'focused'
p6072
I4
sS'phantoms'
p6073
I1
sS'separation'
p6074
I4
sS'latour'
p6075
I6
sS'lends'
p6076
I1
sS'tiality'
p6077
I1
sS'arrive'
p6078
I2
sS'rosary'
p6079
I1
sS'indivisible'
p6080
I1
sS'withdrawing'
p6081
I2
sS'gent'
p6082
I1
sS'larger'
p6083
I4
sS'shades'
p6084
I1
sS'leaving'
p6085
I4
sS'suggests'
p6086
I6
sS'constitutive'
p6087
I1
sS'gene'
p6088
I1
sS'salvation'
p6089
I1
sS'ruin'
p6090
I1
sS'patents'
p6091
I1
sS'examining'
p6092
I1
sS'interstice'
p6093
I1
sS'clark'
p6094
I1
sS'danger'
p6095
I2
sS'win'
p6096
I1
sS'confession'
p6097
I1
sS'collaborating'
p6098
I1
sS'figura'
p6099
I1
sS'apt'
p6100
I2
sS'assertion'
p6101
I1
sS'kristine'
p6102
I1
sS'addressed'
p6103
I3
sS'performer'
p6104
I1
sS'all-white'
p6105
I1
sS'anomalies'
p6106
I1
sS'apply'
p6107
I5
sS'froom'
p6108
I1
sS'manipulate'
p6109
I2
sS'use'
p6110
I23
sS'metaphor'
p6111
I4
sS'figure'
p6112
I14
sS'consumption'
p6113
I7
sS'remains'
p6114
I13
sS'hetero-position'
p6115
I1
sS'ined'
p6116
I1
sS'adequacy'
p6117
I1
sS'few'
p6118
I2
sS'synonyms'
p6119
I1
sS'camera'
p6120
I2
sS'bourgois'
p6121
I1
sS'irruption'
p6122
I1
sS'exhaustive'
p6123
I1
sS'simpler'
p6124
I1
sS'historically'
p6125
I4
sS'wharing'
p6126
I1
sS'sort'
p6127
I3
sS'formally'
p6128
I1
sS'started'
p6129
I1
sS'initial'
p6130
I6
sS'inclined'
p6131
I1
sS'musician'
p6132
I4
sS'heir'
p6133
I1
sS'visibility'
p6134
I2
sS'testifies'
p6135
I1
sS'moses'
p6136
I1
sS'boards'
p6137
I1
sS'paralleled'
p6138
I1
sS'glich'
p6139
I2
sS'scipio'
p6140
I1
sS'announcing'
p6141
I1
sS'averaged'
p6142
I1
sS'non-human'
p6143
I3
sS'circmstances'
p6144
I1
sS'universe'
p6145
I5
sS'meet'
p6146
I1
sS'pousseur'
p6147
I1
sS'anthropological'
p6148
I1
sS'control'
p6149
I18
sS'links'
p6150
I5
sS'katherine'
p6151
I1
sS'breathe'
p6152
I1
sS'pad'
p6153
I1
sS'synchronism'
p6154
I1
sS'assumptions'
p6155
I2
sS'something'
p6156
I26
sS'nonhumanity'
p6157
I1
sS'sought'
p6158
I1
sS'voice'
p6159
I6
sS'gains'
p6160
I2
sS'stemmed'
p6161
I1
sS'united'
p6162
I2
sS'embodiment'
p6163
I26
sS'syndrome'
p6164
I1
sS'defective'
p6165
I1
sS'ambivalence'
p6166
I2
sS'possibili'
p6167
I1
sS'differences'
p6168
I9
sS'poetry'
p6169
I4
sS'arrangement'
p6170
I4
sS'enactments'
p6171
I3
sS'located'
p6172
I2
sS'carrier'
p6173
I2
sS'intersubjectivity'
p6174
I1
sS'dismissing'
p6175
I1
sS'cual'
p6176
I1
sS'instead'
p6177
I25
sS'struggled'
p6178
I1
sS'ideologically'
p6179
I1
sS'memoir'
p6180
I1
sS'typewriter'
p6181
I7
sS'exemplify'
p6182
I2
sS'tension'
p6183
I13
sS'immersed'
p6184
I1
sS'being-directed-towards-the-world'
p6185
I1
sS'mediatiosn'
p6186
I1
sS'tranformation'
p6187
I1
sS'cultural'
p6188
I48
sS'purely'
p6189
I3
sS'sculptures'
p6190
I1
sS'light'
p6191
I5
sS'wittgenstein'
p6192
I1
sS'nonhuman'
p6193
I13
sS'object-oriented'
p6194
I2
sS'advocates'
p6195
I1
sS'agenda'
p6196
I2
sS'entrepeneurs'
p6197
I1
sS'quotations'
p6198
I1
sS'iconographic'
p6199
I1
sS'sanctioned'
p6200
I1
sS'memorious'
p6201
I1
sS'materiality'
p6202
I19
sS'combinations'
p6203
I3
sS'own'
p6204
I49
sS'including'
p6205
I5
sS'worklessness'
p6206
I1
sS'referencing'
p6207
I1
sS'mentioned'
p6208
I1
sS'interpreter'
p6209
I3
sS'facilitates'
p6210
I2
sS'knows'
p6211
I3
sS'june'
p6212
I1
sS'subversive'
p6213
I2
sS'superior'
p6214
I4
sS'technologym'
p6215
I1
sS'temporal'
p6216
I11
sS'arrative'
p6217
I1
sS'nostalgia'
p6218
I6
sS'him'
p6219
I8
sS'permanent'
p6220
I2
sS'contemplative'
p6221
I1
sS'un-sensed'
p6222
I1
sS'travelers'
p6223
I1
sS'technologys'
p6224
I1
sS'defining'
p6225
I3
sS'pixel'
p6226
I3
sS'originator'
p6227
I1
sS'belatedly'
p6228
I1
sS'articulation'
p6229
I7
sS'surrounds'
p6230
I1
sS'auto'
p6231
I1
sS'idiomatic'
p6232
I2
sS'material'
p6233
I40
sS'indexing'
p6234
I1
sS'functional'
p6235
I1
sS'p13'
p6236
I1
sS'p14'
p6237
I1
sS'subtraction'
p6238
I1
sS'hands'
p6239
I3
sS'front'
p6240
I3
sS'documented'
p6241
I1
sS'aleatory'
p6242
I1
sS'continuum'
p6243
I1
sS'articles'
p6244
I1
sS'profound'
p6245
I2
sS'mastery'
p6246
I4
sS'university'
p6247
I2
sS'consensual'
p6248
I1
sS'habitus'
p6249
I1
sS'pathway'
p6250
I1
sS'unpredictable'
p6251
I1
sS'slide'
p6252
I2
sS'magnitude'
p6253
I1
sS'mode'
p6254
I12
sS'crossing'
p6255
I2
sS'effeecct'
p6256
I1
sS'edia'
p6257
I1
sS'studios'
p6258
I1
sS'illuminate'
p6259
I1
sS'babbit'
p6260
I1
sS'globe'
p6261
I1
sS'signifiers'
p6262
I4
sS'related'
p6263
I8
sS'inverted'
p6264
I1
sS'constitute'
p6265
I7
sS'sociohistorical'
p6266
I1
sS'remove'
p6267
I1
sS'collective-narrating-participant-subject'
p6268
I1
sS'relates'
p6269
I1
sS'margins'
p6270
I2
sS'special'
p6271
I6
sS'out'
p6272
I37
sS'category'
p6273
I4
sS'entertainment'
p6274
I1
sS'repositioning'
p6275
I1
sS'chaos'
p6276
I2
sS'categori'
p6277
I1
sS'critics'
p6278
I1
sS'activist'
p6279
I2
sS'performs'
p6280
I1
sS'usados'
p6281
I1
sS'obsessive'
p6282
I1
sS'integrated'
p6283
I2
sS'sculpting'
p6284
I1
sS'unde'
p6285
I1
sS'dictionary'
p6286
I1
sS'eco'
p6287
I1
sS'reacts'
p6288
I1
sS'discontinuity'
p6289
I1
sS'non-absoluteness'
p6290
I1
sS'transfer'
p6291
I1
sS'invisiible'
p6292
I1
sS'completely'
p6293
I6
sS'ect'
p6294
I1
sS'york'
p6295
I2
sS'improvisational'
p6296
I3
sS'archaeologist'
p6297
I1
sS'drowning'
p6298
I1
sS'organic'
p6299
I13
sS'sustainability'
p6300
I1
sS'geometry'
p6301
I1
sS'route'
p6302
I3
sS'times'
p6303
I2
sS'counterpart'
p6304
I2
sS'conversation'
p6305
I2
sS'segregates'
p6306
I1
sS'depriving'
p6307
I1
sS'protagonists'
p6308
I1
sS'excitation'
p6309
I1
sS'teor'
p6310
I1
sS'incipient'
p6311
I1
sS'praxis'
p6312
I9
sS'prospective'
p6313
I1
sS'powerful'
p6314
I10
sS'echo'
p6315
I1
sS'mocks'
p6316
I1
sS'ars'
p6317
I1
sS'choose'
p6318
I2
sS'digitizing'
p6319
I1
sS'art'
p6320
I149
sS'precisely'
p6321
I18
sS'quality'
p6322
I5
sS'bakhtin'
p6323
I3
sS'publication'
p6324
I1
sS'iconification'
p6325
I1
sS'revealed'
p6326
I8
sS'durable'
p6327
I4
sS'midification'
p6328
I1
sS'mal'
p6329
I2
sS'priority'
p6330
I1
sS'their'
p6331
I80
sS'attack'
p6332
I7
sS'reflexivity'
p6333
I1
sS'durably'
p6334
I1
sS'final'
p6335
I5
sS'meaning-productions'
p6336
I1
sS'configure'
p6337
I2
sS'convepts'
p6338
I1
sS'unadulterable'
p6339
I2
sS'scambi'
p6340
I1
sS'reversed'
p6341
I1
sS'exactly'
p6342
I7
sS'scrambling'
p6343
I1
sS'manifestation'
p6344
I7
sS'rst'
p6345
I1
sS'noun'
p6346
I1
sS'overwhelming'
p6347
I4
sS'objectification'
p6348
I3
sS'commence'
p6349
I1
sS'accelerates'
p6350
I1
sS'photograph'
p6351
I2
sS'johnson'
p6352
I3
sS'isolation'
p6353
I1
sS'distinguishes'
p6354
I4
sS'submitted'
p6355
I1
sS'claim'
p6356
I4
sS'succinctly'
p6357
I1
sS'transgression'
p6358
I1
sS'magnificently'
p6359
I1
sS'referral'
p6360
I7
sS'insignificance'
p6361
I1
sS'distinguished'
p6362
I2
sS'bet'
p6363
I1
sS'are'
p6364
I216
sS'behaviors'
p6365
I1
sS'function'
p6366
I26
sS'delineates'
p6367
I1
sS'bar'
p6368
I1
sS'julian'
p6369
I1
sS'delineated'
p6370
I1
sS'portrait'
p6371
I1
sS'need'
p6372
I14
sS'metaphysics'
p6373
I4
sS'performativeness'
p6374
I1
sS'instrumentation'
p6375
I1
sS'mappings'
p6376
I1
sS'pursued'
p6377
I1
sS'agency'
p6378
I26
sS'able'
p6379
I12
sS'si'
p6380
I1
sS'intrinsically'
p6381
I1
sS'instance'
p6382
I5
sS'grounding'
p6383
I1
sS'martha'
p6384
I1
sS'visor'
p6385
I1
sS'pursues'
p6386
I1
sS'heisenberg'
p6387
I1
sS'lectures'
p6388
I1
sS'beyond'
p6389
I23
sS'clash'
p6390
I2
sS'deploy'
p6391
I1
sS'collaboration'
p6392
I4
sS'who'
p6393
I37
sS'intentions'
p6394
I2
sS'connected'
p6395
I6
sS'demise'
p6396
I1
sS'eurocentric'
p6397
I1
sS'homogeneous'
p6398
I1
sS'gallery'
p6399
I3
sS'contestations'
p6400
I1
sS'databased'
p6401
I2
sS'reflxively'
p6402
I1
sS'stereo'
p6403
I1
sS'atll'
p6404
I1
sS'self-producing'
p6405
I1
sS'neighboring'
p6406
I1
sS'archiving'
p6407
I3
sS'con'
p6408
I8
sS'looked'
p6409
I1
sS'vernacular'
p6410
I1
sS'talk'
p6411
I3
sS'poiesis'
p6412
I1
sS'indi'
p6413
I1
sS'gain'
p6414
I1
sS'affair'
p6415
I1
sS'emerging'
p6416
I5
sS'qualms'
p6417
I1
sS'dziga'
p6418
I1
sS'cognitively'
p6419
I1
sS'tures'
p6420
I1
sS'anyway'
p6421
I1
sS'chapters'
p6422
I1
sS'grate'
p6423
I1
sS'argues'
p6424
I7
sS'soldiers'
p6425
I1
sS'fear'
p6426
I1
sS'debate'
p6427
I1
sS'spurring'
p6428
I1
sS'subtracting'
p6429
I1
sS'q1'
p6430
I1
sS'highest'
p6431
I1
sS'based'
p6432
I13
sS'unfinished'
p6433
I1
sS'rasa'
p6434
I1
sS'dramatize'
p6435
I1
sS'operational'
p6436
I2
sS'inherited'
p6437
I2
sS'attained'
p6438
I1
sS'employed'
p6439
I3
sS'piano'
p6440
I1
sS'local'
p6441
I6
sS'thresholds'
p6442
I1
sS'achieve'
p6443
I1
sS'vigor'
p6444
I1
sS'cube'
p6445
I2
sS'overall'
p6446
I2
sS'joint'
p6447
I1
sS'allefedly'
p6448
I1
sS'rger'
p6449
I1
sS'words'
p6450
I9
sS'internationalism'
p6451
I1
sS'totalization'
p6452
I1
sS'real-lived'
p6453
I1
sS'procedures'
p6454
I3
sS'endless'
p6455
I1
sS'processes'
p6456
I18
sS'glory'
p6457
I1
sS'ended'
p6458
I1
sS'numerous'
p6459
I1
sS'differential'
p6460
I1
sS'tuned'
p6461
I3
sS'latterday'
p6462
I1
sS'she'
p6463
I7
sS'contain'
p6464
I4
sS'proponents'
p6465
I1
sS'sediment'
p6466
I1
sS'generations'
p6467
I1
sS'view'
p6468
I11
sS'europe'
p6469
I1
sS'computed'
p6470
I2
sS'funes'
p6471
I3
sS'pitch'
p6472
I2
sS'humans'
p6473
I10
sS'obliterating'
p6474
I1
sS'reinforce'
p6475
I2
sS'computer'
p6476
I57
sS'luminous'
p6477
I1
sS'acquires'
p6478
I1
sS'gestaltist'
p6479
I1
sS'closes'
p6480
I1
sS'berners-lee'
p6481
I1
sS'genius'
p6482
I1
sS'illusory'
p6483
I1
sS'microtopian'
p6484
I1
sS'westernism'
p6485
I1
sS'high-modernist'
p6486
I1
sS'tend'
p6487
I1
sS'tabula'
p6488
I1
sS'written'
p6489
I10
sS'chemin'
p6490
I1
sS'closed'
p6491
I5
sS'limit'
p6492
I13
sS'neither'
p6493
I23
sS'complement'
p6494
I1
sS'comparable'
p6495
I1
sS'attention'
p6496
I5
sS'ability'
p6497
I3
sS'solitary'
p6498
I1
sS'importance'
p6499
I3
sS'audiovisual'
p6500
I1
sS'focus'
p6501
I4
sS'supplemented'
p6502
I2
sS'efficiency'
p6503
I2
sS'hypothesis'
p6504
I2
sS'key'
p6505
I5
sS'problem'
p6506
I11
sS'sonorous'
p6507
I19
sS'interpretations'
p6508
I3
sS'weeks'
p6509
I1
sS'limits'
p6510
I13
sS'retrievable'
p6511
I1
sS'self-organizing'
p6512
I1
sS'unworked'
p6513
I3
sS'cogitans'
p6514
I1
sS'manifestations'
p6515
I1
sS'grain'
p6516
I1
sS'tactical'
p6517
I1
sS'articulatory'
p6518
I1
sS'trajectories'
p6519
I1
sS'mutating'
p6520
I1
sS'withdraws'
p6521
I1
sS'llegada'
p6522
I1
sS'capabilities'
p6523
I3
sS'wall'
p6524
I1
sS'habitual'
p6525
I5
sS'paranormal'
p6526
I1
sS'environments'
p6527
I1
sS'walk'
p6528
I1
sS'individuation'
p6529
I2
sS'invisible'
p6530
I5
sS'instituting'
p6531
I1
sS'kings'
p6532
I1
sS'image-producing'
p6533
I1
sS'crystalline'
p6534
I2
sS'withdrawn'
p6535
I3
sS'sextuple'
p6536
I1
sS'socialist-feminism'
p6537
I1
sS'attests'
p6538
I1
sS'addition'
p6539
I2
sS'relationally'
p6540
I1
sS'charts'
p6541
I1
sS'responds'
p6542
I1
sS'relying'
p6543
I1
sS'immense'
p6544
I3
sS'literal'
p6545
I3
sS'offers'
p6546
I7
sS'slowly'
p6547
I1
sS'erases'
p6548
I6
sS'poet'
p6549
I1
sS'senses'
p6550
I5
sS'corresponding'
p6551
I3
sS'retrospective'
p6552
I1
sS'oto'
p6553
I1
sS'painted'
p6554
I1
sS'myu'
p6555
I1
sS'reimpression'
p6556
I1
sS'presend'
p6557
I1
sS'expenditure'
p6558
I1
sS'ontical'
p6559
I1
sS'mail'
p6560
I1
sS'improved'
p6561
I1
sS'repetition'
p6562
I21
sS'present'
p6563
I46
sS'novel'
p6564
I3
sS'abandoned'
p6565
I4
sS'unlike'
p6566
I4
sS'contexts'
p6567
I5
sS'corrientes'
p6568
I1
sS'choices'
p6569
I5
sS'will'
p6570
I49
sS'mythology'
p6571
I1
sS'primacy'
p6572
I1
sS'layer'
p6573
I2
sS'incorpo'
p6574
I1
sS'motif'
p6575
I2
sS'inhabits'
p6576
I2
sS'surface'
p6577
I2
sS'interrogate'
p6578
I1
sS'quires'
p6579
I1
sS'examined'
p6580
I1
sS'audiences'
p6581
I3
sS'dehiscence'
p6582
I1
sS'turns'
p6583
I2
sS'ominously'
p6584
I1
sS'parent'
p6585
I2
sS'capture'
p6586
I4
sS'unveiling'
p6587
I1
sS'ritualized'
p6588
I1
sS'perhaps'
p6589
I15
sS'began'
p6590
I4
sS'cross'
p6591
I2
sS'specetral'
p6592
I1
sS'computer-aided'
p6593
I1
sS'member'
p6594
I4
sS'unity'
p6595
I15
sS'parts'
p6596
I4
sS'speaker'
p6597
I3
sS'largest'
p6598
I2
sS'underground'
p6599
I1
sS'transformative'
p6600
I2
sS'gets'
p6601
I1
sS'redescribes'
p6602
I1
sS'reconfiguring'
p6603
I3
sS'difficult'
p6604
I3
sS'experimented'
p6605
I1
sS'slave'
p6606
I2
sS'fraternity'
p6607
I1
sS'appearances'
p6608
I1
sS'conceived'
p6609
I6
sS'abounds'
p6610
I1
sS'automation'
p6611
I5
sS'subtexts'
p6612
I1
sS'unintelligible'
p6613
I1
sS'desposes'
p6614
I1
sS'fierce'
p6615
I1
sS'frequently'
p6616
I4
sS'magician'
p6617
I1
sS'conceives'
p6618
I2
sS'destruction'
p6619
I7
sS'transaction'
p6620
I1
sS'self-presence'
p6621
I1
sS'phenomenality'
p6622
I2
sS'timbre'
p6623
I8
sS'variety'
p6624
I7
sS'well'
p6625
I25
sS'insurmountable'
p6626
I1
sS'touching'
p6627
I3
sS'appropriates'
p6628
I1
sS'spectator'
p6629
I1
sS'english'
p6630
I2
sS'more-or-less'
p6631
I1
sS'excessive'
p6632
I2
sS'enormously'
p6633
I1
sS'heavily'
p6634
I2
sS'increasingly'
p6635
I6
sS'incapable'
p6636
I1
sS'accurate'
p6637
I2
sS'identically'
p6638
I1
sS'obtain'
p6639
I2
sS'mistaken'
p6640
I1
sS'detail'
p6641
I2
sS'sources'
p6642
I3
sS'mistakes'
p6643
I1
sS'distant'
p6644
I1
sS'non-participating'
p6645
I1
sS'skill'
p6646
I1
sS'illinois'
p6647
I3
sS'flaxman'
p6648
I1
sS'farther'
p6649
I1
sS'deploys'
p6650
I2
sS'point'
p6651
I16
sS'spatiality'
p6652
I2
sS'road'
p6653
I2
sS'premodernist'
p6654
I1
sS'other'
p6655
I116
sS'extends'
p6656
I1
sS'unpredictability'
p6657
I1
sS'curdling'
p6658
I1
sS'nos'
p6659
I1
sS'unprecedented'
p6660
I2
sS'enact'
p6661
I1
sS'identical'
p6662
I2
sS'sonic'
p6663
I5
sS'sonia'
p6664
I1
sS'branch'
p6665
I1
sS'fate'
p6666
I2
sS'disappearance'
p6667
I3
sS'encompasssing'
p6668
I1
sS'crushed'
p6669
I1
sS'avant-garde'
p6670
I9
sS'leon'
p6671
I1
sS'burden'
p6672
I2
sS'sequencing'
p6673
I2
sS'immediately'
p6674
I6
sS'intersection'
p6675
I6
sS'prominent'
p6676
I2
sS'loss'
p6677
I11
sS'billions'
p6678
I2
sS'necessary'
p6679
I3
sS'archons'
p6680
I1
sS'differentiations'
p6681
I1
sS'perpetual'
p6682
I1
sS'nachtr'
p6683
I2
sS'loses'
p6684
I4
sS'filiation'
p6685
I1
sS'technopolitical'
p6686
I1
sS'rituals'
p6687
I3
sS'lose'
p6688
I1
sS'simply'
p6689
I11
sS'repressed'
p6690
I3
sS'page'
p6691
I2
sS'likes'
p6692
I1
sS'because'
p6693
I28
sS'being-in-the-world'
p6694
I3
sS'sequence'
p6695
I7
sS'advent'
p6696
I1
sS'phenomena'
p6697
I1
sS'searching'
p6698
I1
sS'library'
p6699
I3
sS'motive'
p6700
I2
sS'platforms'
p6701
I2
sS'repeat'
p6702
I4
sS'asserted'
p6703
I1
sS'home'
p6704
I2
sS'peter'
p6705
I1
sS'supple'
p6706
I1
sS'lead'
p6707
I3
sS'broad'
p6708
I1
sS'computer-based'
p6709
I2
sS'markers'
p6710
I2
sS'instantaneous'
p6711
I2
sS'e-mail'
p6712
I2
sS'percolate'
p6713
I1
sS'bolster'
p6714
I1
sS'poets'
p6715
I1
sS'multiple'
p6716
I8
sS'real-world'
p6717
I1
sS'deferrals'
p6718
I2
sS'expansion'
p6719
I5
sS'paper'
p6720
I1
sS'imperfectly'
p6721
I1
sS'alterity'
p6722
I3
sS'bundle'
p6723
I1
sS'p32'
p6724
I1
sS'java'
p6725
I1
sS'agamben'
p6726
I1
sS'refuge'
p6727
I2
sS'transformations'
p6728
I1
sS'meta-meaning'
p6729
I1
sS'rare'
p6730
I1
sS'carried'
p6731
I2
sS'extension'
p6732
I6
sS'unsurpassable'
p6733
I1
sS'column'
p6734
I1
sS'freedom'
p6735
I7
sS'ecological'
p6736
I1
sS'recognized'
p6737
I3
sS'compatible'
p6738
I1
sS'carries'
p6739
I4
sS'amodern'
p6740
I1
sS'dominion'
p6741
I1
sS'epitomize'
p6742
I1
sS'recognizes'
p6743
I2
sS'devouring'
p6744
I1
sS'stakes'
p6745
I1
sS'converging'
p6746
I1
sS'self-defers'
p6747
I1
sS'enacts'
p6748
I1
sS'dichotomies'
p6749
I1
sS'strangeness'
p6750
I1
sS'rethinking'
p6751
I3
sS'previously'
p6752
I3
sS'primal'
p6753
I1
sS'evocation'
p6754
I3
sS'attains'
p6755
I1
sS'articulate'
p6756
I1
sS'specificity'
p6757
I1
sS'globalized'
p6758
I2
sS'neologistic'
p6759
I1
sS'promise'
p6760
I5
sS'artists'
p6761
I19
sS'screened'
p6762
I1
sS'pointless'
p6763
I1
sS'utility'
p6764
I2
sS'doubtless'
p6765
I1
sS'alive'
p6766
I1
sS'caltculations'
p6767
I1
sS'networking'
p6768
I1
sS'val'
p6769
I1
sS'artifacts'
p6770
I1
sS'crystallization'
p6771
I1
sS'museum'
p6772
I3
sS'apps'
p6773
I1
sS'intention'
p6774
I9
sS'inner'
p6775
I2
sS'resists'
p6776
I3
sS'exposure'
p6777
I9
sS'holist'
p6778
I1
sS'self-appropriation'
p6779
I1
sS'real-time'
p6780
I2
sS'subjective'
p6781
I2
sS'neutral'
p6782
I1
sS'hierarchical'
p6783
I6
sS'contradictory'
p6784
I1
sS'goals'
p6785
I2
sS'automated'
p6786
I1
sS'ear'
p6787
I3
sS'presuppositions'
p6788
I2
sS'he'
p6789
I65
sS'cyborgs'
p6790
I1
sS'made'
p6791
I32
sS'whether'
p6792
I11
sS'cells'
p6793
I2
sS'record'
p6794
I4
sS'below'
p6795
I1
sS'converted'
p6796
I1
sS'stories'
p6797
I7
sS'signer'
p6798
I1
sS'piece'
p6799
I6
sS'display'
p6800
I1
sS'stirring'
p6801
I1
sS'inhere'
p6802
I1
sS'mechanics'
p6803
I1
sS'unfolding'
p6804
I3
sS'ttwo'
p6805
I1
sS'universal'
p6806
I3
sS'tissues'
p6807
I1
sS'linearity'
p6808
I1
sS'generating'
p6809
I1
sS'cogitating'
p6810
I2
sS'flight'
p6811
I1
sS'education'
p6812
I2
sS'counteract'
p6813
I1
sS'ra-configuration'
p6814
I1
sS'sibility'
p6815
I1
sS'functions'
p6816
I10
sS'performed'
p6817
I3
sS'diplomas'
p6818
I1
sS'maintains'
p6819
I3
sS'calibration'
p6820
I1
sS'allow'
p6821
I10
sS'gonstructed'
p6822
I1
sS'portion'
p6823
I2
sS'envisaged'
p6824
I1
sS'book'
p6825
I13
sS'chronofile'
p6826
I1
sS'normal'
p6827
I2
sS'sica'
p6828
I4
sS'cyborg'
p6829
I2
sS'conclusion'
p6830
I3
sS'fodder'
p6831
I1
sS'star'
p6832
I1
sS'heidi'
p6833
I1
sS'ecstatic'
p6834
I2
sS'living'
p6835
I12
sS'reorientation'
p6836
I1
sS'setting'
p6837
I2
sS'foir'
p6838
I1
sS'ultimately'
p6839
I10
sS'inherently'
p6840
I3
sS'cruelty'
p6841
I1
sS'alghough'
p6842
I1
sS'problematics'
p6843
I1
sS'omposition'
p6844
I1
sS'non-existing'
p6845
I1
sS'expands'
p6846
I3
sS'factors'
p6847
I3
sS'intentionally'
p6848
I1
sS'ephochal'
p6849
I1
sS'overleap'
p6850
I1
sS'diagnosis'
p6851
I1
sS'ideological'
p6852
I2
sS'unsteadily'
p6853
I1
sS'lives'
p6854
I6
sS'idoelogical'
p6855
I1
sS'frankfurt'
p6856
I1
sS'commencement'
p6857
I3
stp6858
Rp6859
.